ccopy_reg
_reconstructor
p1
(cpCore.Testing
TestDataSet
p2
c__builtin__
object
p3
NtRp4
(dp5
S'data'
p6
(dp7
S'HS Cross-Section'
p8
g1
(cpCore.Testing
TestReal
p9
g3
NtRp10
(dp11
S'valueFormat'
p12
S'{:.4e}'
p13
sS'parent'
p14
g4
sS'usePercentError'
p15
I01
sS'percentErrorTolerance'
p16
F10
sS'value'
p17
F197.24161133458693
sS'label'
p18
g8
sS'absoluteErrorTolerance'
p19
F19.724161133458693
sS'toleranceFormat'
p20
g13
sS'units'
p21
NsbsS'PA Mobility'
p22
g1
(g9
g3
NtRp23
(dp24
g12
g13
sg14
g4
sg15
I01
sg16
F10
sg17
F0.00030022643115999855
sg18
g22
sg19
F3.0022643115999855e-05
sg20
g13
sg21
NsbsS'HS Mobility'
p25
g1
(g9
g3
NtRp26
(dp27
g12
g13
sg14
g4
sg15
I01
sg16
F10
sg17
F0.00027236862014549815
sg18
g25
sg19
F2.7236862014549816e-05
sg20
g13
sg21
NsbsS'PA Cross-Section'
p28
g1
(g9
g3
NtRp29
(dp30
g12
g13
sg14
g4
sg15
I01
sg16
F10
sg17
F178.93969330716922
sg18
g28
sg19
F17.893969330716924
sg20
g13
sg21
NsbssS'children'
p31
(dp32
sg14
Nsg18
S'Ion Mobilities'
p33
sb.
