cpCore.Serialization
RawObjectConstructor
p1
(cpMolecule.System
System
p2
tRp3
(dp4
S'energyModel'
p5
g1
(cpMolecule.EnergyModel
EnergyModel
p6
tRp7
(dp8
S'nbModel'
p9
g1
(cpMolecule.NBModelMonteCarlo
NBModelMonteCarlo
p10
tRp11
(dp12
S'buffer'
p13
F0.5
sS'cutoff'
p14
F8.5
sS'electrostaticUnderflow'
p15
F0.5
sS'lennardJonesUnderflow'
p16
F0.20000000000000001
sS'dielectric'
p17
F1
sbsS'mmAtoms'
p18
g1
(cpMolecule.MMAtomContainer
MMAtomContainer
p19
tRp20
(dp21
S'atomFields'
p22
(lp23
S'isActive'
p24
aS'atomType'
p25
aS'ljType'
p26
aS'charge'
p27
asS'atomTypes'
p28
(lp29
S'CT'
p30
aS'HC'
p31
aS'HW'
p32
aS'OW'
p33
asS'atoms'
p34
(lp35
(lp36
I01
aI0
aI0
aF-0.23999999999999999
aa(lp37
I01
aI1
aI1
aF0.059999999999999998
aa(lp38
I01
aI1
aI1
aF0.059999999999999998
aa(lp39
I01
aI1
aI1
aF0.059999999999999998
aa(lp40
I01
aI1
aI1
aF0.059999999999999998
aa(lp41
I01
aI3
aI3
aF-0.83399999999999996
aa(lp42
I01
aI2
aI2
aF0.41699999999999998
aa(lp43
I01
aI2
aI2
aF0.41699999999999998
aa(lp44
I01
aI3
aI3
aF-0.83399999999999996
aa(lp45
I01
aI2
aI2
aF0.41699999999999998
aa(lp46
I01
aI2
aI2
aF0.41699999999999998
aa(lp47
I01
aI3
aI3
aF-0.83399999999999996
aa(lp48
I01
aI2
aI2
aF0.41699999999999998
aa(lp49
I01
aI2
aI2
aF0.41699999999999998
aa(lp50
I01
aI3
aI3
aF-0.83399999999999996
aa(lp51
I01
aI2
aI2
aF0.41699999999999998
aa(lp52
I01
aI2
aI2
aF0.41699999999999998
aa(lp53
I01
aI3
aI3
aF-0.83399999999999996
aa(lp54
I01
aI2
aI2
aF0.41699999999999998
aa(lp55
I01
aI2
aI2
aF0.41699999999999998
aa(lp56
I01
aI3
aI3
aF-0.83399999999999996
aa(lp57
I01
aI2
aI2
aF0.41699999999999998
aa(lp58
I01
aI2
aI2
aF0.41699999999999998
aa(lp59
I01
aI3
aI3
aF-0.83399999999999996
aa(lp60
I01
aI2
aI2
aF0.41699999999999998
aa(lp61
I01
aI2
aI2
aF0.41699999999999998
aa(lp62
I01
aI3
aI3
aF-0.83399999999999996
aa(lp63
I01
aI2
aI2
aF0.41699999999999998
aa(lp64
I01
aI2
aI2
aF0.41699999999999998
aa(lp65
I01
aI3
aI3
aF-0.83399999999999996
aa(lp66
I01
aI2
aI2
aF0.41699999999999998
aa(lp67
I01
aI2
aI2
aF0.41699999999999998
aa(lp68
I01
aI3
aI3
aF-0.83399999999999996
aa(lp69
I01
aI2
aI2
aF0.41699999999999998
aa(lp70
I01
aI2
aI2
aF0.41699999999999998
aa(lp71
I01
aI3
aI3
aF-0.83399999999999996
aa(lp72
I01
aI2
aI2
aF0.41699999999999998
aa(lp73
I01
aI2
aI2
aF0.41699999999999998
aa(lp74
I01
aI3
aI3
aF-0.83399999999999996
aa(lp75
I01
aI2
aI2
aF0.41699999999999998
aa(lp76
I01
aI2
aI2
aF0.41699999999999998
aa(lp77
I01
aI3
aI3
aF-0.83399999999999996
aa(lp78
I01
aI2
aI2
aF0.41699999999999998
aa(lp79
I01
aI2
aI2
aF0.41699999999999998
aa(lp80
I01
aI3
aI3
aF-0.83399999999999996
aa(lp81
I01
aI2
aI2
aF0.41699999999999998
aa(lp82
I01
aI2
aI2
aF0.41699999999999998
aa(lp83
I01
aI3
aI3
aF-0.83399999999999996
aa(lp84
I01
aI2
aI2
aF0.41699999999999998
aa(lp85
I01
aI2
aI2
aF0.41699999999999998
aa(lp86
I01
aI3
aI3
aF-0.83399999999999996
aa(lp87
I01
aI2
aI2
aF0.41699999999999998
aa(lp88
I01
aI2
aI2
aF0.41699999999999998
aa(lp89
I01
aI3
aI3
aF-0.83399999999999996
aa(lp90
I01
aI2
aI2
aF0.41699999999999998
aa(lp91
I01
aI2
aI2
aF0.41699999999999998
aa(lp92
I01
aI3
aI3
aF-0.83399999999999996
aa(lp93
I01
aI2
aI2
aF0.41699999999999998
aa(lp94
I01
aI2
aI2
aF0.41699999999999998
aa(lp95
I01
aI3
aI3
aF-0.83399999999999996
aa(lp96
I01
aI2
aI2
aF0.41699999999999998
aa(lp97
I01
aI2
aI2
aF0.41699999999999998
aa(lp98
I01
aI3
aI3
aF-0.83399999999999996
aa(lp99
I01
aI2
aI2
aF0.41699999999999998
aa(lp100
I01
aI2
aI2
aF0.41699999999999998
aa(lp101
I01
aI3
aI3
aF-0.83399999999999996
aa(lp102
I01
aI2
aI2
aF0.41699999999999998
aa(lp103
I01
aI2
aI2
aF0.41699999999999998
aa(lp104
I01
aI3
aI3
aF-0.83399999999999996
aa(lp105
I01
aI2
aI2
aF0.41699999999999998
aa(lp106
I01
aI2
aI2
aF0.41699999999999998
aa(lp107
I01
aI3
aI3
aF-0.83399999999999996
aa(lp108
I01
aI2
aI2
aF0.41699999999999998
aa(lp109
I01
aI2
aI2
aF0.41699999999999998
aa(lp110
I01
aI3
aI3
aF-0.83399999999999996
aa(lp111
I01
aI2
aI2
aF0.41699999999999998
aa(lp112
I01
aI2
aI2
aF0.41699999999999998
aa(lp113
I01
aI3
aI3
aF-0.83399999999999996
aa(lp114
I01
aI2
aI2
aF0.41699999999999998
aa(lp115
I01
aI2
aI2
aF0.41699999999999998
aa(lp116
I01
aI3
aI3
aF-0.83399999999999996
aa(lp117
I01
aI2
aI2
aF0.41699999999999998
aa(lp118
I01
aI2
aI2
aF0.41699999999999998
aa(lp119
I01
aI3
aI3
aF-0.83399999999999996
aa(lp120
I01
aI2
aI2
aF0.41699999999999998
aa(lp121
I01
aI2
aI2
aF0.41699999999999998
aa(lp122
I01
aI3
aI3
aF-0.83399999999999996
aa(lp123
I01
aI2
aI2
aF0.41699999999999998
aa(lp124
I01
aI2
aI2
aF0.41699999999999998
aa(lp125
I01
aI3
aI3
aF-0.83399999999999996
aa(lp126
I01
aI2
aI2
aF0.41699999999999998
aa(lp127
I01
aI2
aI2
aF0.41699999999999998
aa(lp128
I01
aI3
aI3
aF-0.83399999999999996
aa(lp129
I01
aI2
aI2
aF0.41699999999999998
aa(lp130
I01
aI2
aI2
aF0.41699999999999998
aa(lp131
I01
aI3
aI3
aF-0.83399999999999996
aa(lp132
I01
aI2
aI2
aF0.41699999999999998
aa(lp133
I01
aI2
aI2
aF0.41699999999999998
aa(lp134
I01
aI3
aI3
aF-0.83399999999999996
aa(lp135
I01
aI2
aI2
aF0.41699999999999998
aa(lp136
I01
aI2
aI2
aF0.41699999999999998
aa(lp137
I01
aI3
aI3
aF-0.83399999999999996
aa(lp138
I01
aI2
aI2
aF0.41699999999999998
aa(lp139
I01
aI2
aI2
aF0.41699999999999998
aa(lp140
I01
aI3
aI3
aF-0.83399999999999996
aa(lp141
I01
aI2
aI2
aF0.41699999999999998
aa(lp142
I01
aI2
aI2
aF0.41699999999999998
aa(lp143
I01
aI3
aI3
aF-0.83399999999999996
aa(lp144
I01
aI2
aI2
aF0.41699999999999998
aa(lp145
I01
aI2
aI2
aF0.41699999999999998
aa(lp146
I01
aI3
aI3
aF-0.83399999999999996
aa(lp147
I01
aI2
aI2
aF0.41699999999999998
aa(lp148
I01
aI2
aI2
aF0.41699999999999998
aa(lp149
I01
aI3
aI3
aF-0.83399999999999996
aa(lp150
I01
aI2
aI2
aF0.41699999999999998
aa(lp151
I01
aI2
aI2
aF0.41699999999999998
aa(lp152
I01
aI3
aI3
aF-0.83399999999999996
aa(lp153
I01
aI2
aI2
aF0.41699999999999998
aa(lp154
I01
aI2
aI2
aF0.41699999999999998
aa(lp155
I01
aI3
aI3
aF-0.83399999999999996
aa(lp156
I01
aI2
aI2
aF0.41699999999999998
aa(lp157
I01
aI2
aI2
aF0.41699999999999998
aa(lp158
I01
aI3
aI3
aF-0.83399999999999996
aa(lp159
I01
aI2
aI2
aF0.41699999999999998
aa(lp160
I01
aI2
aI2
aF0.41699999999999998
aa(lp161
I01
aI3
aI3
aF-0.83399999999999996
aa(lp162
I01
aI2
aI2
aF0.41699999999999998
aa(lp163
I01
aI2
aI2
aF0.41699999999999998
aa(lp164
I01
aI3
aI3
aF-0.83399999999999996
aa(lp165
I01
aI2
aI2
aF0.41699999999999998
aa(lp166
I01
aI2
aI2
aF0.41699999999999998
aa(lp167
I01
aI3
aI3
aF-0.83399999999999996
aa(lp168
I01
aI2
aI2
aF0.41699999999999998
aa(lp169
I01
aI2
aI2
aF0.41699999999999998
aa(lp170
I01
aI3
aI3
aF-0.83399999999999996
aa(lp171
I01
aI2
aI2
aF0.41699999999999998
aa(lp172
I01
aI2
aI2
aF0.41699999999999998
aa(lp173
I01
aI3
aI3
aF-0.83399999999999996
aa(lp174
I01
aI2
aI2
aF0.41699999999999998
aa(lp175
I01
aI2
aI2
aF0.41699999999999998
aa(lp176
I01
aI3
aI3
aF-0.83399999999999996
aa(lp177
I01
aI2
aI2
aF0.41699999999999998
aa(lp178
I01
aI2
aI2
aF0.41699999999999998
aa(lp179
I01
aI3
aI3
aF-0.83399999999999996
aa(lp180
I01
aI2
aI2
aF0.41699999999999998
aa(lp181
I01
aI2
aI2
aF0.41699999999999998
aa(lp182
I01
aI3
aI3
aF-0.83399999999999996
aa(lp183
I01
aI2
aI2
aF0.41699999999999998
aa(lp184
I01
aI2
aI2
aF0.41699999999999998
aa(lp185
I01
aI3
aI3
aF-0.83399999999999996
aa(lp186
I01
aI2
aI2
aF0.41699999999999998
aa(lp187
I01
aI2
aI2
aF0.41699999999999998
aa(lp188
I01
aI3
aI3
aF-0.83399999999999996
aa(lp189
I01
aI2
aI2
aF0.41699999999999998
aa(lp190
I01
aI2
aI2
aF0.41699999999999998
aa(lp191
I01
aI3
aI3
aF-0.83399999999999996
aa(lp192
I01
aI2
aI2
aF0.41699999999999998
aa(lp193
I01
aI2
aI2
aF0.41699999999999998
aa(lp194
I01
aI3
aI3
aF-0.83399999999999996
aa(lp195
I01
aI2
aI2
aF0.41699999999999998
aa(lp196
I01
aI2
aI2
aF0.41699999999999998
aa(lp197
I01
aI3
aI3
aF-0.83399999999999996
aa(lp198
I01
aI2
aI2
aF0.41699999999999998
aa(lp199
I01
aI2
aI2
aF0.41699999999999998
aa(lp200
I01
aI3
aI3
aF-0.83399999999999996
aa(lp201
I01
aI2
aI2
aF0.41699999999999998
aa(lp202
I01
aI2
aI2
aF0.41699999999999998
aa(lp203
I01
aI3
aI3
aF-0.83399999999999996
aa(lp204
I01
aI2
aI2
aF0.41699999999999998
aa(lp205
I01
aI2
aI2
aF0.41699999999999998
aa(lp206
I01
aI3
aI3
aF-0.83399999999999996
aa(lp207
I01
aI2
aI2
aF0.41699999999999998
aa(lp208
I01
aI2
aI2
aF0.41699999999999998
aa(lp209
I01
aI3
aI3
aF-0.83399999999999996
aa(lp210
I01
aI2
aI2
aF0.41699999999999998
aa(lp211
I01
aI2
aI2
aF0.41699999999999998
aa(lp212
I01
aI3
aI3
aF-0.83399999999999996
aa(lp213
I01
aI2
aI2
aF0.41699999999999998
aa(lp214
I01
aI2
aI2
aF0.41699999999999998
aa(lp215
I01
aI3
aI3
aF-0.83399999999999996
aa(lp216
I01
aI2
aI2
aF0.41699999999999998
aa(lp217
I01
aI2
aI2
aF0.41699999999999998
aa(lp218
I01
aI3
aI3
aF-0.83399999999999996
aa(lp219
I01
aI2
aI2
aF0.41699999999999998
aa(lp220
I01
aI2
aI2
aF0.41699999999999998
aa(lp221
I01
aI3
aI3
aF-0.83399999999999996
aa(lp222
I01
aI2
aI2
aF0.41699999999999998
aa(lp223
I01
aI2
aI2
aF0.41699999999999998
aa(lp224
I01
aI3
aI3
aF-0.83399999999999996
aa(lp225
I01
aI2
aI2
aF0.41699999999999998
aa(lp226
I01
aI2
aI2
aF0.41699999999999998
aa(lp227
I01
aI3
aI3
aF-0.83399999999999996
aa(lp228
I01
aI2
aI2
aF0.41699999999999998
aa(lp229
I01
aI2
aI2
aF0.41699999999999998
aa(lp230
I01
aI3
aI3
aF-0.83399999999999996
aa(lp231
I01
aI2
aI2
aF0.41699999999999998
aa(lp232
I01
aI2
aI2
aF0.41699999999999998
aa(lp233
I01
aI3
aI3
aF-0.83399999999999996
aa(lp234
I01
aI2
aI2
aF0.41699999999999998
aa(lp235
I01
aI2
aI2
aF0.41699999999999998
aa(lp236
I01
aI3
aI3
aF-0.83399999999999996
aa(lp237
I01
aI2
aI2
aF0.41699999999999998
aa(lp238
I01
aI2
aI2
aF0.41699999999999998
aa(lp239
I01
aI3
aI3
aF-0.83399999999999996
aa(lp240
I01
aI2
aI2
aF0.41699999999999998
aa(lp241
I01
aI2
aI2
aF0.41699999999999998
aa(lp242
I01
aI3
aI3
aF-0.83399999999999996
aa(lp243
I01
aI2
aI2
aF0.41699999999999998
aa(lp244
I01
aI2
aI2
aF0.41699999999999998
aa(lp245
I01
aI3
aI3
aF-0.83399999999999996
aa(lp246
I01
aI2
aI2
aF0.41699999999999998
aa(lp247
I01
aI2
aI2
aF0.41699999999999998
aa(lp248
I01
aI3
aI3
aF-0.83399999999999996
aa(lp249
I01
aI2
aI2
aF0.41699999999999998
aa(lp250
I01
aI2
aI2
aF0.41699999999999998
aa(lp251
I01
aI3
aI3
aF-0.83399999999999996
aa(lp252
I01
aI2
aI2
aF0.41699999999999998
aa(lp253
I01
aI2
aI2
aF0.41699999999999998
aa(lp254
I01
aI3
aI3
aF-0.83399999999999996
aa(lp255
I01
aI2
aI2
aF0.41699999999999998
aa(lp256
I01
aI2
aI2
aF0.41699999999999998
aa(lp257
I01
aI3
aI3
aF-0.83399999999999996
aa(lp258
I01
aI2
aI2
aF0.41699999999999998
aa(lp259
I01
aI2
aI2
aF0.41699999999999998
aa(lp260
I01
aI3
aI3
aF-0.83399999999999996
aa(lp261
I01
aI2
aI2
aF0.41699999999999998
aa(lp262
I01
aI2
aI2
aF0.41699999999999998
aa(lp263
I01
aI3
aI3
aF-0.83399999999999996
aa(lp264
I01
aI2
aI2
aF0.41699999999999998
aa(lp265
I01
aI2
aI2
aF0.41699999999999998
aa(lp266
I01
aI3
aI3
aF-0.83399999999999996
aa(lp267
I01
aI2
aI2
aF0.41699999999999998
aa(lp268
I01
aI2
aI2
aF0.41699999999999998
aa(lp269
I01
aI3
aI3
aF-0.83399999999999996
aa(lp270
I01
aI2
aI2
aF0.41699999999999998
aa(lp271
I01
aI2
aI2
aF0.41699999999999998
aa(lp272
I01
aI3
aI3
aF-0.83399999999999996
aa(lp273
I01
aI2
aI2
aF0.41699999999999998
aa(lp274
I01
aI2
aI2
aF0.41699999999999998
aa(lp275
I01
aI3
aI3
aF-0.83399999999999996
aa(lp276
I01
aI2
aI2
aF0.41699999999999998
aa(lp277
I01
aI2
aI2
aF0.41699999999999998
aa(lp278
I01
aI3
aI3
aF-0.83399999999999996
aa(lp279
I01
aI2
aI2
aF0.41699999999999998
aa(lp280
I01
aI2
aI2
aF0.41699999999999998
aa(lp281
I01
aI3
aI3
aF-0.83399999999999996
aa(lp282
I01
aI2
aI2
aF0.41699999999999998
aa(lp283
I01
aI2
aI2
aF0.41699999999999998
aa(lp284
I01
aI3
aI3
aF-0.83399999999999996
aa(lp285
I01
aI2
aI2
aF0.41699999999999998
aa(lp286
I01
aI2
aI2
aF0.41699999999999998
aa(lp287
I01
aI3
aI3
aF-0.83399999999999996
aa(lp288
I01
aI2
aI2
aF0.41699999999999998
aa(lp289
I01
aI2
aI2
aF0.41699999999999998
aa(lp290
I01
aI3
aI3
aF-0.83399999999999996
aa(lp291
I01
aI2
aI2
aF0.41699999999999998
aa(lp292
I01
aI2
aI2
aF0.41699999999999998
aa(lp293
I01
aI3
aI3
aF-0.83399999999999996
aa(lp294
I01
aI2
aI2
aF0.41699999999999998
aa(lp295
I01
aI2
aI2
aF0.41699999999999998
aa(lp296
I01
aI3
aI3
aF-0.83399999999999996
aa(lp297
I01
aI2
aI2
aF0.41699999999999998
aa(lp298
I01
aI2
aI2
aF0.41699999999999998
aa(lp299
I01
aI3
aI3
aF-0.83399999999999996
aa(lp300
I01
aI2
aI2
aF0.41699999999999998
aa(lp301
I01
aI2
aI2
aF0.41699999999999998
aa(lp302
I01
aI3
aI3
aF-0.83399999999999996
aa(lp303
I01
aI2
aI2
aF0.41699999999999998
aa(lp304
I01
aI2
aI2
aF0.41699999999999998
aa(lp305
I01
aI3
aI3
aF-0.83399999999999996
aa(lp306
I01
aI2
aI2
aF0.41699999999999998
aa(lp307
I01
aI2
aI2
aF0.41699999999999998
aa(lp308
I01
aI3
aI3
aF-0.83399999999999996
aa(lp309
I01
aI2
aI2
aF0.41699999999999998
aa(lp310
I01
aI2
aI2
aF0.41699999999999998
aa(lp311
I01
aI3
aI3
aF-0.83399999999999996
aa(lp312
I01
aI2
aI2
aF0.41699999999999998
aa(lp313
I01
aI2
aI2
aF0.41699999999999998
aa(lp314
I01
aI3
aI3
aF-0.83399999999999996
aa(lp315
I01
aI2
aI2
aF0.41699999999999998
aa(lp316
I01
aI2
aI2
aF0.41699999999999998
aa(lp317
I01
aI3
aI3
aF-0.83399999999999996
aa(lp318
I01
aI2
aI2
aF0.41699999999999998
aa(lp319
I01
aI2
aI2
aF0.41699999999999998
aa(lp320
I01
aI3
aI3
aF-0.83399999999999996
aa(lp321
I01
aI2
aI2
aF0.41699999999999998
aa(lp322
I01
aI2
aI2
aF0.41699999999999998
aa(lp323
I01
aI3
aI3
aF-0.83399999999999996
aa(lp324
I01
aI2
aI2
aF0.41699999999999998
aa(lp325
I01
aI2
aI2
aF0.41699999999999998
aa(lp326
I01
aI3
aI3
aF-0.83399999999999996
aa(lp327
I01
aI2
aI2
aF0.41699999999999998
aa(lp328
I01
aI2
aI2
aF0.41699999999999998
aa(lp329
I01
aI3
aI3
aF-0.83399999999999996
aa(lp330
I01
aI2
aI2
aF0.41699999999999998
aa(lp331
I01
aI2
aI2
aF0.41699999999999998
aa(lp332
I01
aI3
aI3
aF-0.83399999999999996
aa(lp333
I01
aI2
aI2
aF0.41699999999999998
aa(lp334
I01
aI2
aI2
aF0.41699999999999998
aa(lp335
I01
aI3
aI3
aF-0.83399999999999996
aa(lp336
I01
aI2
aI2
aF0.41699999999999998
aa(lp337
I01
aI2
aI2
aF0.41699999999999998
aa(lp338
I01
aI3
aI3
aF-0.83399999999999996
aa(lp339
I01
aI2
aI2
aF0.41699999999999998
aa(lp340
I01
aI2
aI2
aF0.41699999999999998
aa(lp341
I01
aI3
aI3
aF-0.83399999999999996
aa(lp342
I01
aI2
aI2
aF0.41699999999999998
aa(lp343
I01
aI2
aI2
aF0.41699999999999998
aa(lp344
I01
aI3
aI3
aF-0.83399999999999996
aa(lp345
I01
aI2
aI2
aF0.41699999999999998
aa(lp346
I01
aI2
aI2
aF0.41699999999999998
aa(lp347
I01
aI3
aI3
aF-0.83399999999999996
aa(lp348
I01
aI2
aI2
aF0.41699999999999998
aa(lp349
I01
aI2
aI2
aF0.41699999999999998
aa(lp350
I01
aI3
aI3
aF-0.83399999999999996
aa(lp351
I01
aI2
aI2
aF0.41699999999999998
aa(lp352
I01
aI2
aI2
aF0.41699999999999998
aa(lp353
I01
aI3
aI3
aF-0.83399999999999996
aa(lp354
I01
aI2
aI2
aF0.41699999999999998
aa(lp355
I01
aI2
aI2
aF0.41699999999999998
aa(lp356
I01
aI3
aI3
aF-0.83399999999999996
aa(lp357
I01
aI2
aI2
aF0.41699999999999998
aa(lp358
I01
aI2
aI2
aF0.41699999999999998
aa(lp359
I01
aI3
aI3
aF-0.83399999999999996
aa(lp360
I01
aI2
aI2
aF0.41699999999999998
aa(lp361
I01
aI2
aI2
aF0.41699999999999998
aa(lp362
I01
aI3
aI3
aF-0.83399999999999996
aa(lp363
I01
aI2
aI2
aF0.41699999999999998
aa(lp364
I01
aI2
aI2
aF0.41699999999999998
aa(lp365
I01
aI3
aI3
aF-0.83399999999999996
aa(lp366
I01
aI2
aI2
aF0.41699999999999998
aa(lp367
I01
aI2
aI2
aF0.41699999999999998
aa(lp368
I01
aI3
aI3
aF-0.83399999999999996
aa(lp369
I01
aI2
aI2
aF0.41699999999999998
aa(lp370
I01
aI2
aI2
aF0.41699999999999998
aa(lp371
I01
aI3
aI3
aF-0.83399999999999996
aa(lp372
I01
aI2
aI2
aF0.41699999999999998
aa(lp373
I01
aI2
aI2
aF0.41699999999999998
aa(lp374
I01
aI3
aI3
aF-0.83399999999999996
aa(lp375
I01
aI2
aI2
aF0.41699999999999998
aa(lp376
I01
aI2
aI2
aF0.41699999999999998
aa(lp377
I01
aI3
aI3
aF-0.83399999999999996
aa(lp378
I01
aI2
aI2
aF0.41699999999999998
aa(lp379
I01
aI2
aI2
aF0.41699999999999998
aa(lp380
I01
aI3
aI3
aF-0.83399999999999996
aa(lp381
I01
aI2
aI2
aF0.41699999999999998
aa(lp382
I01
aI2
aI2
aF0.41699999999999998
aa(lp383
I01
aI3
aI3
aF-0.83399999999999996
aa(lp384
I01
aI2
aI2
aF0.41699999999999998
aa(lp385
I01
aI2
aI2
aF0.41699999999999998
aa(lp386
I01
aI3
aI3
aF-0.83399999999999996
aa(lp387
I01
aI2
aI2
aF0.41699999999999998
aa(lp388
I01
aI2
aI2
aF0.41699999999999998
aa(lp389
I01
aI3
aI3
aF-0.83399999999999996
aa(lp390
I01
aI2
aI2
aF0.41699999999999998
aa(lp391
I01
aI2
aI2
aF0.41699999999999998
aa(lp392
I01
aI3
aI3
aF-0.83399999999999996
aa(lp393
I01
aI2
aI2
aF0.41699999999999998
aa(lp394
I01
aI2
aI2
aF0.41699999999999998
aa(lp395
I01
aI3
aI3
aF-0.83399999999999996
aa(lp396
I01
aI2
aI2
aF0.41699999999999998
aa(lp397
I01
aI2
aI2
aF0.41699999999999998
aa(lp398
I01
aI3
aI3
aF-0.83399999999999996
aa(lp399
I01
aI2
aI2
aF0.41699999999999998
aa(lp400
I01
aI2
aI2
aF0.41699999999999998
aa(lp401
I01
aI3
aI3
aF-0.83399999999999996
aa(lp402
I01
aI2
aI2
aF0.41699999999999998
aa(lp403
I01
aI2
aI2
aF0.41699999999999998
aa(lp404
I01
aI3
aI3
aF-0.83399999999999996
aa(lp405
I01
aI2
aI2
aF0.41699999999999998
aa(lp406
I01
aI2
aI2
aF0.41699999999999998
aa(lp407
I01
aI3
aI3
aF-0.83399999999999996
aa(lp408
I01
aI2
aI2
aF0.41699999999999998
aa(lp409
I01
aI2
aI2
aF0.41699999999999998
aa(lp410
I01
aI3
aI3
aF-0.83399999999999996
aa(lp411
I01
aI2
aI2
aF0.41699999999999998
aa(lp412
I01
aI2
aI2
aF0.41699999999999998
aa(lp413
I01
aI3
aI3
aF-0.83399999999999996
aa(lp414
I01
aI2
aI2
aF0.41699999999999998
aa(lp415
I01
aI2
aI2
aF0.41699999999999998
aa(lp416
I01
aI3
aI3
aF-0.83399999999999996
aa(lp417
I01
aI2
aI2
aF0.41699999999999998
aa(lp418
I01
aI2
aI2
aF0.41699999999999998
aa(lp419
I01
aI3
aI3
aF-0.83399999999999996
aa(lp420
I01
aI2
aI2
aF0.41699999999999998
aa(lp421
I01
aI2
aI2
aF0.41699999999999998
aa(lp422
I01
aI3
aI3
aF-0.83399999999999996
aa(lp423
I01
aI2
aI2
aF0.41699999999999998
aa(lp424
I01
aI2
aI2
aF0.41699999999999998
aa(lp425
I01
aI3
aI3
aF-0.83399999999999996
aa(lp426
I01
aI2
aI2
aF0.41699999999999998
aa(lp427
I01
aI2
aI2
aF0.41699999999999998
aa(lp428
I01
aI3
aI3
aF-0.83399999999999996
aa(lp429
I01
aI2
aI2
aF0.41699999999999998
aa(lp430
I01
aI2
aI2
aF0.41699999999999998
aa(lp431
I01
aI3
aI3
aF-0.83399999999999996
aa(lp432
I01
aI2
aI2
aF0.41699999999999998
aa(lp433
I01
aI2
aI2
aF0.41699999999999998
aa(lp434
I01
aI3
aI3
aF-0.83399999999999996
aa(lp435
I01
aI2
aI2
aF0.41699999999999998
aa(lp436
I01
aI2
aI2
aF0.41699999999999998
aa(lp437
I01
aI3
aI3
aF-0.83399999999999996
aa(lp438
I01
aI2
aI2
aF0.41699999999999998
aa(lp439
I01
aI2
aI2
aF0.41699999999999998
aa(lp440
I01
aI3
aI3
aF-0.83399999999999996
aa(lp441
I01
aI2
aI2
aF0.41699999999999998
aa(lp442
I01
aI2
aI2
aF0.41699999999999998
aa(lp443
I01
aI3
aI3
aF-0.83399999999999996
aa(lp444
I01
aI2
aI2
aF0.41699999999999998
aa(lp445
I01
aI2
aI2
aF0.41699999999999998
aa(lp446
I01
aI3
aI3
aF-0.83399999999999996
aa(lp447
I01
aI2
aI2
aF0.41699999999999998
aa(lp448
I01
aI2
aI2
aF0.41699999999999998
aa(lp449
I01
aI3
aI3
aF-0.83399999999999996
aa(lp450
I01
aI2
aI2
aF0.41699999999999998
aa(lp451
I01
aI2
aI2
aF0.41699999999999998
aa(lp452
I01
aI3
aI3
aF-0.83399999999999996
aa(lp453
I01
aI2
aI2
aF0.41699999999999998
aa(lp454
I01
aI2
aI2
aF0.41699999999999998
aa(lp455
I01
aI3
aI3
aF-0.83399999999999996
aa(lp456
I01
aI2
aI2
aF0.41699999999999998
aa(lp457
I01
aI2
aI2
aF0.41699999999999998
aa(lp458
I01
aI3
aI3
aF-0.83399999999999996
aa(lp459
I01
aI2
aI2
aF0.41699999999999998
aa(lp460
I01
aI2
aI2
aF0.41699999999999998
aa(lp461
I01
aI3
aI3
aF-0.83399999999999996
aa(lp462
I01
aI2
aI2
aF0.41699999999999998
aa(lp463
I01
aI2
aI2
aF0.41699999999999998
aa(lp464
I01
aI3
aI3
aF-0.83399999999999996
aa(lp465
I01
aI2
aI2
aF0.41699999999999998
aa(lp466
I01
aI2
aI2
aF0.41699999999999998
aa(lp467
I01
aI3
aI3
aF-0.83399999999999996
aa(lp468
I01
aI2
aI2
aF0.41699999999999998
aa(lp469
I01
aI2
aI2
aF0.41699999999999998
aa(lp470
I01
aI3
aI3
aF-0.83399999999999996
aa(lp471
I01
aI2
aI2
aF0.41699999999999998
aa(lp472
I01
aI2
aI2
aF0.41699999999999998
aa(lp473
I01
aI3
aI3
aF-0.83399999999999996
aa(lp474
I01
aI2
aI2
aF0.41699999999999998
aa(lp475
I01
aI2
aI2
aF0.41699999999999998
aa(lp476
I01
aI3
aI3
aF-0.83399999999999996
aa(lp477
I01
aI2
aI2
aF0.41699999999999998
aa(lp478
I01
aI2
aI2
aF0.41699999999999998
aa(lp479
I01
aI3
aI3
aF-0.83399999999999996
aa(lp480
I01
aI2
aI2
aF0.41699999999999998
aa(lp481
I01
aI2
aI2
aF0.41699999999999998
aa(lp482
I01
aI3
aI3
aF-0.83399999999999996
aa(lp483
I01
aI2
aI2
aF0.41699999999999998
aa(lp484
I01
aI2
aI2
aF0.41699999999999998
aa(lp485
I01
aI3
aI3
aF-0.83399999999999996
aa(lp486
I01
aI2
aI2
aF0.41699999999999998
aa(lp487
I01
aI2
aI2
aF0.41699999999999998
aa(lp488
I01
aI3
aI3
aF-0.83399999999999996
aa(lp489
I01
aI2
aI2
aF0.41699999999999998
aa(lp490
I01
aI2
aI2
aF0.41699999999999998
aa(lp491
I01
aI3
aI3
aF-0.83399999999999996
aa(lp492
I01
aI2
aI2
aF0.41699999999999998
aa(lp493
I01
aI2
aI2
aF0.41699999999999998
aa(lp494
I01
aI3
aI3
aF-0.83399999999999996
aa(lp495
I01
aI2
aI2
aF0.41699999999999998
aa(lp496
I01
aI2
aI2
aF0.41699999999999998
aa(lp497
I01
aI3
aI3
aF-0.83399999999999996
aa(lp498
I01
aI2
aI2
aF0.41699999999999998
aa(lp499
I01
aI2
aI2
aF0.41699999999999998
aa(lp500
I01
aI3
aI3
aF-0.83399999999999996
aa(lp501
I01
aI2
aI2
aF0.41699999999999998
aa(lp502
I01
aI2
aI2
aF0.41699999999999998
aa(lp503
I01
aI3
aI3
aF-0.83399999999999996
aa(lp504
I01
aI2
aI2
aF0.41699999999999998
aa(lp505
I01
aI2
aI2
aF0.41699999999999998
aa(lp506
I01
aI3
aI3
aF-0.83399999999999996
aa(lp507
I01
aI2
aI2
aF0.41699999999999998
aa(lp508
I01
aI2
aI2
aF0.41699999999999998
aa(lp509
I01
aI3
aI3
aF-0.83399999999999996
aa(lp510
I01
aI2
aI2
aF0.41699999999999998
aa(lp511
I01
aI2
aI2
aF0.41699999999999998
aa(lp512
I01
aI3
aI3
aF-0.83399999999999996
aa(lp513
I01
aI2
aI2
aF0.41699999999999998
aa(lp514
I01
aI2
aI2
aF0.41699999999999998
aa(lp515
I01
aI3
aI3
aF-0.83399999999999996
aa(lp516
I01
aI2
aI2
aF0.41699999999999998
aa(lp517
I01
aI2
aI2
aF0.41699999999999998
aa(lp518
I01
aI3
aI3
aF-0.83399999999999996
aa(lp519
I01
aI2
aI2
aF0.41699999999999998
aa(lp520
I01
aI2
aI2
aF0.41699999999999998
aa(lp521
I01
aI3
aI3
aF-0.83399999999999996
aa(lp522
I01
aI2
aI2
aF0.41699999999999998
aa(lp523
I01
aI2
aI2
aF0.41699999999999998
aa(lp524
I01
aI3
aI3
aF-0.83399999999999996
aa(lp525
I01
aI2
aI2
aF0.41699999999999998
aa(lp526
I01
aI2
aI2
aF0.41699999999999998
aa(lp527
I01
aI3
aI3
aF-0.83399999999999996
aa(lp528
I01
aI2
aI2
aF0.41699999999999998
aa(lp529
I01
aI2
aI2
aF0.41699999999999998
aa(lp530
I01
aI3
aI3
aF-0.83399999999999996
aa(lp531
I01
aI2
aI2
aF0.41699999999999998
aa(lp532
I01
aI2
aI2
aF0.41699999999999998
aa(lp533
I01
aI3
aI3
aF-0.83399999999999996
aa(lp534
I01
aI2
aI2
aF0.41699999999999998
aa(lp535
I01
aI2
aI2
aF0.41699999999999998
aa(lp536
I01
aI3
aI3
aF-0.83399999999999996
aa(lp537
I01
aI2
aI2
aF0.41699999999999998
aa(lp538
I01
aI2
aI2
aF0.41699999999999998
aa(lp539
I01
aI3
aI3
aF-0.83399999999999996
aa(lp540
I01
aI2
aI2
aF0.41699999999999998
aa(lp541
I01
aI2
aI2
aF0.41699999999999998
aa(lp542
I01
aI3
aI3
aF-0.83399999999999996
aa(lp543
I01
aI2
aI2
aF0.41699999999999998
aa(lp544
I01
aI2
aI2
aF0.41699999999999998
aa(lp545
I01
aI3
aI3
aF-0.83399999999999996
aa(lp546
I01
aI2
aI2
aF0.41699999999999998
aa(lp547
I01
aI2
aI2
aF0.41699999999999998
aa(lp548
I01
aI3
aI3
aF-0.83399999999999996
aa(lp549
I01
aI2
aI2
aF0.41699999999999998
aa(lp550
I01
aI2
aI2
aF0.41699999999999998
aa(lp551
I01
aI3
aI3
aF-0.83399999999999996
aa(lp552
I01
aI2
aI2
aF0.41699999999999998
aa(lp553
I01
aI2
aI2
aF0.41699999999999998
aa(lp554
I01
aI3
aI3
aF-0.83399999999999996
aa(lp555
I01
aI2
aI2
aF0.41699999999999998
aa(lp556
I01
aI2
aI2
aF0.41699999999999998
aa(lp557
I01
aI3
aI3
aF-0.83399999999999996
aa(lp558
I01
aI2
aI2
aF0.41699999999999998
aa(lp559
I01
aI2
aI2
aF0.41699999999999998
aa(lp560
I01
aI3
aI3
aF-0.83399999999999996
aa(lp561
I01
aI2
aI2
aF0.41699999999999998
aa(lp562
I01
aI2
aI2
aF0.41699999999999998
aa(lp563
I01
aI3
aI3
aF-0.83399999999999996
aa(lp564
I01
aI2
aI2
aF0.41699999999999998
aa(lp565
I01
aI2
aI2
aF0.41699999999999998
aa(lp566
I01
aI3
aI3
aF-0.83399999999999996
aa(lp567
I01
aI2
aI2
aF0.41699999999999998
aa(lp568
I01
aI2
aI2
aF0.41699999999999998
aa(lp569
I01
aI3
aI3
aF-0.83399999999999996
aa(lp570
I01
aI2
aI2
aF0.41699999999999998
aa(lp571
I01
aI2
aI2
aF0.41699999999999998
aa(lp572
I01
aI3
aI3
aF-0.83399999999999996
aa(lp573
I01
aI2
aI2
aF0.41699999999999998
aa(lp574
I01
aI2
aI2
aF0.41699999999999998
aa(lp575
I01
aI3
aI3
aF-0.83399999999999996
aa(lp576
I01
aI2
aI2
aF0.41699999999999998
aa(lp577
I01
aI2
aI2
aF0.41699999999999998
aa(lp578
I01
aI3
aI3
aF-0.83399999999999996
aa(lp579
I01
aI2
aI2
aF0.41699999999999998
aa(lp580
I01
aI2
aI2
aF0.41699999999999998
aa(lp581
I01
aI3
aI3
aF-0.83399999999999996
aa(lp582
I01
aI2
aI2
aF0.41699999999999998
aa(lp583
I01
aI2
aI2
aF0.41699999999999998
aa(lp584
I01
aI3
aI3
aF-0.83399999999999996
aa(lp585
I01
aI2
aI2
aF0.41699999999999998
aa(lp586
I01
aI2
aI2
aF0.41699999999999998
aa(lp587
I01
aI3
aI3
aF-0.83399999999999996
aa(lp588
I01
aI2
aI2
aF0.41699999999999998
aa(lp589
I01
aI2
aI2
aF0.41699999999999998
aa(lp590
I01
aI3
aI3
aF-0.83399999999999996
aa(lp591
I01
aI2
aI2
aF0.41699999999999998
aa(lp592
I01
aI2
aI2
aF0.41699999999999998
aa(lp593
I01
aI3
aI3
aF-0.83399999999999996
aa(lp594
I01
aI2
aI2
aF0.41699999999999998
aa(lp595
I01
aI2
aI2
aF0.41699999999999998
aa(lp596
I01
aI3
aI3
aF-0.83399999999999996
aa(lp597
I01
aI2
aI2
aF0.41699999999999998
aa(lp598
I01
aI2
aI2
aF0.41699999999999998
aa(lp599
I01
aI3
aI3
aF-0.83399999999999996
aa(lp600
I01
aI2
aI2
aF0.41699999999999998
aa(lp601
I01
aI2
aI2
aF0.41699999999999998
aa(lp602
I01
aI3
aI3
aF-0.83399999999999996
aa(lp603
I01
aI2
aI2
aF0.41699999999999998
aa(lp604
I01
aI2
aI2
aF0.41699999999999998
aa(lp605
I01
aI3
aI3
aF-0.83399999999999996
aa(lp606
I01
aI2
aI2
aF0.41699999999999998
aa(lp607
I01
aI2
aI2
aF0.41699999999999998
aa(lp608
I01
aI3
aI3
aF-0.83399999999999996
aa(lp609
I01
aI2
aI2
aF0.41699999999999998
aa(lp610
I01
aI2
aI2
aF0.41699999999999998
aa(lp611
I01
aI3
aI3
aF-0.83399999999999996
aa(lp612
I01
aI2
aI2
aF0.41699999999999998
aa(lp613
I01
aI2
aI2
aF0.41699999999999998
aa(lp614
I01
aI3
aI3
aF-0.83399999999999996
aa(lp615
I01
aI2
aI2
aF0.41699999999999998
aa(lp616
I01
aI2
aI2
aF0.41699999999999998
aa(lp617
I01
aI3
aI3
aF-0.83399999999999996
aa(lp618
I01
aI2
aI2
aF0.41699999999999998
aa(lp619
I01
aI2
aI2
aF0.41699999999999998
aa(lp620
I01
aI3
aI3
aF-0.83399999999999996
aa(lp621
I01
aI2
aI2
aF0.41699999999999998
aa(lp622
I01
aI2
aI2
aF0.41699999999999998
aa(lp623
I01
aI3
aI3
aF-0.83399999999999996
aa(lp624
I01
aI2
aI2
aF0.41699999999999998
aa(lp625
I01
aI2
aI2
aF0.41699999999999998
aa(lp626
I01
aI3
aI3
aF-0.83399999999999996
aa(lp627
I01
aI2
aI2
aF0.41699999999999998
aa(lp628
I01
aI2
aI2
aF0.41699999999999998
aa(lp629
I01
aI3
aI3
aF-0.83399999999999996
aa(lp630
I01
aI2
aI2
aF0.41699999999999998
aa(lp631
I01
aI2
aI2
aF0.41699999999999998
aa(lp632
I01
aI3
aI3
aF-0.83399999999999996
aa(lp633
I01
aI2
aI2
aF0.41699999999999998
aa(lp634
I01
aI2
aI2
aF0.41699999999999998
aa(lp635
I01
aI3
aI3
aF-0.83399999999999996
aa(lp636
I01
aI2
aI2
aF0.41699999999999998
aa(lp637
I01
aI2
aI2
aF0.41699999999999998
aa(lp638
I01
aI3
aI3
aF-0.83399999999999996
aa(lp639
I01
aI2
aI2
aF0.41699999999999998
aa(lp640
I01
aI2
aI2
aF0.41699999999999998
aa(lp641
I01
aI3
aI3
aF-0.83399999999999996
aa(lp642
I01
aI2
aI2
aF0.41699999999999998
aa(lp643
I01
aI2
aI2
aF0.41699999999999998
aa(lp644
I01
aI3
aI3
aF-0.83399999999999996
aa(lp645
I01
aI2
aI2
aF0.41699999999999998
aa(lp646
I01
aI2
aI2
aF0.41699999999999998
aa(lp647
I01
aI3
aI3
aF-0.83399999999999996
aa(lp648
I01
aI2
aI2
aF0.41699999999999998
aa(lp649
I01
aI2
aI2
aF0.41699999999999998
aa(lp650
I01
aI3
aI3
aF-0.83399999999999996
aa(lp651
I01
aI2
aI2
aF0.41699999999999998
aa(lp652
I01
aI2
aI2
aF0.41699999999999998
aa(lp653
I01
aI3
aI3
aF-0.83399999999999996
aa(lp654
I01
aI2
aI2
aF0.41699999999999998
aa(lp655
I01
aI2
aI2
aF0.41699999999999998
aa(lp656
I01
aI3
aI3
aF-0.83399999999999996
aa(lp657
I01
aI2
aI2
aF0.41699999999999998
aa(lp658
I01
aI2
aI2
aF0.41699999999999998
aa(lp659
I01
aI3
aI3
aF-0.83399999999999996
aa(lp660
I01
aI2
aI2
aF0.41699999999999998
aa(lp661
I01
aI2
aI2
aF0.41699999999999998
aa(lp662
I01
aI3
aI3
aF-0.83399999999999996
aa(lp663
I01
aI2
aI2
aF0.41699999999999998
aa(lp664
I01
aI2
aI2
aF0.41699999999999998
aa(lp665
I01
aI3
aI3
aF-0.83399999999999996
aa(lp666
I01
aI2
aI2
aF0.41699999999999998
aa(lp667
I01
aI2
aI2
aF0.41699999999999998
aa(lp668
I01
aI3
aI3
aF-0.83399999999999996
aa(lp669
I01
aI2
aI2
aF0.41699999999999998
aa(lp670
I01
aI2
aI2
aF0.41699999999999998
aa(lp671
I01
aI3
aI3
aF-0.83399999999999996
aa(lp672
I01
aI2
aI2
aF0.41699999999999998
aa(lp673
I01
aI2
aI2
aF0.41699999999999998
aa(lp674
I01
aI3
aI3
aF-0.83399999999999996
aa(lp675
I01
aI2
aI2
aF0.41699999999999998
aa(lp676
I01
aI2
aI2
aF0.41699999999999998
aa(lp677
I01
aI3
aI3
aF-0.83399999999999996
aa(lp678
I01
aI2
aI2
aF0.41699999999999998
aa(lp679
I01
aI2
aI2
aF0.41699999999999998
aa(lp680
I01
aI3
aI3
aF-0.83399999999999996
aa(lp681
I01
aI2
aI2
aF0.41699999999999998
aa(lp682
I01
aI2
aI2
aF0.41699999999999998
aa(lp683
I01
aI3
aI3
aF-0.83399999999999996
aa(lp684
I01
aI2
aI2
aF0.41699999999999998
aa(lp685
I01
aI2
aI2
aF0.41699999999999998
aasbsS'interactions14'
p686
g1
(cpCore.PairList
SelfPairList
p687
tRp688
sS'mmModel'
p689
g1
(cpMolecule.MMModel
MMModelOPLS
p690
tRp691
(dp692
S'lennardJonesScale14'
p693
F0.5
sS'label'
p694
S'OPLS'
p695
sS'lennardJonesStyle'
p696
g695
sS'electrostaticScale14'
p697
F0.5
sS'path'
p698
NsS'fullPath'
p699
NsS'parameterSet'
p700
Nsbsg694
S'OPLS/Monte Carlo'
p701
sS'ljParameters'
p702
g1
(cpMolecule.LJParameterContainer
LJParameterContainer
p703
tRp704
(dp705
S'parameterKeys'
p706
(lp707
g30
ag31
ag32
ag33
asg694
S'Lennard-Jones'
p708
sS'epsilons'
p709
(lp710
F0.276144
aF0.12551999999999999
aF0
aF0.63638640000000013
asS'numberOfTypes'
p711
I4
sS'sigmas'
p712
(lp713
F3.5
aF2.5
aF0
aF3.1506099999999999
asS'analyticForm'
p714
S'OPLS'
p715
sbsS'mmTerms'
p716
g1
(cpMolecule.MMTermContainer
MMTermContainer
p717
tRp718
(dp719
S'Harmonic Bond'
p720
g1
(cpMolecule.HarmonicBondContainer
HarmonicBondContainer
p721
tRp722
(dp723
S'terms'
p724
(lp725
(lp726
I1
aI0
aI1
aI01
aa(lp727
I2
aI0
aI1
aI01
aa(lp728
I3
aI0
aI1
aI01
aa(lp729
I4
aI0
aI1
aI01
aa(lp730
I6
aI5
aI0
aI01
aa(lp731
I7
aI5
aI0
aI01
aa(lp732
I9
aI8
aI0
aI01
aa(lp733
I10
aI8
aI0
aI01
aa(lp734
I12
aI11
aI0
aI01
aa(lp735
I13
aI11
aI0
aI01
aa(lp736
I15
aI14
aI0
aI01
aa(lp737
I16
aI14
aI0
aI01
aa(lp738
I18
aI17
aI0
aI01
aa(lp739
I19
aI17
aI0
aI01
aa(lp740
I21
aI20
aI0
aI01
aa(lp741
I22
aI20
aI0
aI01
aa(lp742
I24
aI23
aI0
aI01
aa(lp743
I25
aI23
aI0
aI01
aa(lp744
I27
aI26
aI0
aI01
aa(lp745
I28
aI26
aI0
aI01
aa(lp746
I30
aI29
aI0
aI01
aa(lp747
I31
aI29
aI0
aI01
aa(lp748
I33
aI32
aI0
aI01
aa(lp749
I34
aI32
aI0
aI01
aa(lp750
I36
aI35
aI0
aI01
aa(lp751
I37
aI35
aI0
aI01
aa(lp752
I39
aI38
aI0
aI01
aa(lp753
I40
aI38
aI0
aI01
aa(lp754
I42
aI41
aI0
aI01
aa(lp755
I43
aI41
aI0
aI01
aa(lp756
I45
aI44
aI0
aI01
aa(lp757
I46
aI44
aI0
aI01
aa(lp758
I48
aI47
aI0
aI01
aa(lp759
I49
aI47
aI0
aI01
aa(lp760
I51
aI50
aI0
aI01
aa(lp761
I52
aI50
aI0
aI01
aa(lp762
I54
aI53
aI0
aI01
aa(lp763
I55
aI53
aI0
aI01
aa(lp764
I57
aI56
aI0
aI01
aa(lp765
I58
aI56
aI0
aI01
aa(lp766
I60
aI59
aI0
aI01
aa(lp767
I61
aI59
aI0
aI01
aa(lp768
I63
aI62
aI0
aI01
aa(lp769
I64
aI62
aI0
aI01
aa(lp770
I66
aI65
aI0
aI01
aa(lp771
I67
aI65
aI0
aI01
aa(lp772
I69
aI68
aI0
aI01
aa(lp773
I70
aI68
aI0
aI01
aa(lp774
I72
aI71
aI0
aI01
aa(lp775
I73
aI71
aI0
aI01
aa(lp776
I75
aI74
aI0
aI01
aa(lp777
I76
aI74
aI0
aI01
aa(lp778
I78
aI77
aI0
aI01
aa(lp779
I79
aI77
aI0
aI01
aa(lp780
I81
aI80
aI0
aI01
aa(lp781
I82
aI80
aI0
aI01
aa(lp782
I84
aI83
aI0
aI01
aa(lp783
I85
aI83
aI0
aI01
aa(lp784
I87
aI86
aI0
aI01
aa(lp785
I88
aI86
aI0
aI01
aa(lp786
I90
aI89
aI0
aI01
aa(lp787
I91
aI89
aI0
aI01
aa(lp788
I93
aI92
aI0
aI01
aa(lp789
I94
aI92
aI0
aI01
aa(lp790
I96
aI95
aI0
aI01
aa(lp791
I97
aI95
aI0
aI01
aa(lp792
I99
aI98
aI0
aI01
aa(lp793
I100
aI98
aI0
aI01
aa(lp794
I102
aI101
aI0
aI01
aa(lp795
I103
aI101
aI0
aI01
aa(lp796
I105
aI104
aI0
aI01
aa(lp797
I106
aI104
aI0
aI01
aa(lp798
I108
aI107
aI0
aI01
aa(lp799
I109
aI107
aI0
aI01
aa(lp800
I111
aI110
aI0
aI01
aa(lp801
I112
aI110
aI0
aI01
aa(lp802
I114
aI113
aI0
aI01
aa(lp803
I115
aI113
aI0
aI01
aa(lp804
I117
aI116
aI0
aI01
aa(lp805
I118
aI116
aI0
aI01
aa(lp806
I120
aI119
aI0
aI01
aa(lp807
I121
aI119
aI0
aI01
aa(lp808
I123
aI122
aI0
aI01
aa(lp809
I124
aI122
aI0
aI01
aa(lp810
I126
aI125
aI0
aI01
aa(lp811
I127
aI125
aI0
aI01
aa(lp812
I129
aI128
aI0
aI01
aa(lp813
I130
aI128
aI0
aI01
aa(lp814
I132
aI131
aI0
aI01
aa(lp815
I133
aI131
aI0
aI01
aa(lp816
I135
aI134
aI0
aI01
aa(lp817
I136
aI134
aI0
aI01
aa(lp818
I138
aI137
aI0
aI01
aa(lp819
I139
aI137
aI0
aI01
aa(lp820
I141
aI140
aI0
aI01
aa(lp821
I142
aI140
aI0
aI01
aa(lp822
I144
aI143
aI0
aI01
aa(lp823
I145
aI143
aI0
aI01
aa(lp824
I147
aI146
aI0
aI01
aa(lp825
I148
aI146
aI0
aI01
aa(lp826
I150
aI149
aI0
aI01
aa(lp827
I151
aI149
aI0
aI01
aa(lp828
I153
aI152
aI0
aI01
aa(lp829
I154
aI152
aI0
aI01
aa(lp830
I156
aI155
aI0
aI01
aa(lp831
I157
aI155
aI0
aI01
aa(lp832
I159
aI158
aI0
aI01
aa(lp833
I160
aI158
aI0
aI01
aa(lp834
I162
aI161
aI0
aI01
aa(lp835
I163
aI161
aI0
aI01
aa(lp836
I165
aI164
aI0
aI01
aa(lp837
I166
aI164
aI0
aI01
aa(lp838
I168
aI167
aI0
aI01
aa(lp839
I169
aI167
aI0
aI01
aa(lp840
I171
aI170
aI0
aI01
aa(lp841
I172
aI170
aI0
aI01
aa(lp842
I174
aI173
aI0
aI01
aa(lp843
I175
aI173
aI0
aI01
aa(lp844
I177
aI176
aI0
aI01
aa(lp845
I178
aI176
aI0
aI01
aa(lp846
I180
aI179
aI0
aI01
aa(lp847
I181
aI179
aI0
aI01
aa(lp848
I183
aI182
aI0
aI01
aa(lp849
I184
aI182
aI0
aI01
aa(lp850
I186
aI185
aI0
aI01
aa(lp851
I187
aI185
aI0
aI01
aa(lp852
I189
aI188
aI0
aI01
aa(lp853
I190
aI188
aI0
aI01
aa(lp854
I192
aI191
aI0
aI01
aa(lp855
I193
aI191
aI0
aI01
aa(lp856
I195
aI194
aI0
aI01
aa(lp857
I196
aI194
aI0
aI01
aa(lp858
I198
aI197
aI0
aI01
aa(lp859
I199
aI197
aI0
aI01
aa(lp860
I201
aI200
aI0
aI01
aa(lp861
I202
aI200
aI0
aI01
aa(lp862
I204
aI203
aI0
aI01
aa(lp863
I205
aI203
aI0
aI01
aa(lp864
I207
aI206
aI0
aI01
aa(lp865
I208
aI206
aI0
aI01
aa(lp866
I210
aI209
aI0
aI01
aa(lp867
I211
aI209
aI0
aI01
aa(lp868
I213
aI212
aI0
aI01
aa(lp869
I214
aI212
aI0
aI01
aa(lp870
I216
aI215
aI0
aI01
aa(lp871
I217
aI215
aI0
aI01
aa(lp872
I219
aI218
aI0
aI01
aa(lp873
I220
aI218
aI0
aI01
aa(lp874
I222
aI221
aI0
aI01
aa(lp875
I223
aI221
aI0
aI01
aa(lp876
I225
aI224
aI0
aI01
aa(lp877
I226
aI224
aI0
aI01
aa(lp878
I228
aI227
aI0
aI01
aa(lp879
I229
aI227
aI0
aI01
aa(lp880
I231
aI230
aI0
aI01
aa(lp881
I232
aI230
aI0
aI01
aa(lp882
I234
aI233
aI0
aI01
aa(lp883
I235
aI233
aI0
aI01
aa(lp884
I237
aI236
aI0
aI01
aa(lp885
I238
aI236
aI0
aI01
aa(lp886
I240
aI239
aI0
aI01
aa(lp887
I241
aI239
aI0
aI01
aa(lp888
I243
aI242
aI0
aI01
aa(lp889
I244
aI242
aI0
aI01
aa(lp890
I246
aI245
aI0
aI01
aa(lp891
I247
aI245
aI0
aI01
aa(lp892
I249
aI248
aI0
aI01
aa(lp893
I250
aI248
aI0
aI01
aa(lp894
I252
aI251
aI0
aI01
aa(lp895
I253
aI251
aI0
aI01
aa(lp896
I255
aI254
aI0
aI01
aa(lp897
I256
aI254
aI0
aI01
aa(lp898
I258
aI257
aI0
aI01
aa(lp899
I259
aI257
aI0
aI01
aa(lp900
I261
aI260
aI0
aI01
aa(lp901
I262
aI260
aI0
aI01
aa(lp902
I264
aI263
aI0
aI01
aa(lp903
I265
aI263
aI0
aI01
aa(lp904
I267
aI266
aI0
aI01
aa(lp905
I268
aI266
aI0
aI01
aa(lp906
I270
aI269
aI0
aI01
aa(lp907
I271
aI269
aI0
aI01
aa(lp908
I273
aI272
aI0
aI01
aa(lp909
I274
aI272
aI0
aI01
aa(lp910
I276
aI275
aI0
aI01
aa(lp911
I277
aI275
aI0
aI01
aa(lp912
I279
aI278
aI0
aI01
aa(lp913
I280
aI278
aI0
aI01
aa(lp914
I282
aI281
aI0
aI01
aa(lp915
I283
aI281
aI0
aI01
aa(lp916
I285
aI284
aI0
aI01
aa(lp917
I286
aI284
aI0
aI01
aa(lp918
I288
aI287
aI0
aI01
aa(lp919
I289
aI287
aI0
aI01
aa(lp920
I291
aI290
aI0
aI01
aa(lp921
I292
aI290
aI0
aI01
aa(lp922
I294
aI293
aI0
aI01
aa(lp923
I295
aI293
aI0
aI01
aa(lp924
I297
aI296
aI0
aI01
aa(lp925
I298
aI296
aI0
aI01
aa(lp926
I300
aI299
aI0
aI01
aa(lp927
I301
aI299
aI0
aI01
aa(lp928
I303
aI302
aI0
aI01
aa(lp929
I304
aI302
aI0
aI01
aa(lp930
I306
aI305
aI0
aI01
aa(lp931
I307
aI305
aI0
aI01
aa(lp932
I309
aI308
aI0
aI01
aa(lp933
I310
aI308
aI0
aI01
aa(lp934
I312
aI311
aI0
aI01
aa(lp935
I313
aI311
aI0
aI01
aa(lp936
I315
aI314
aI0
aI01
aa(lp937
I316
aI314
aI0
aI01
aa(lp938
I318
aI317
aI0
aI01
aa(lp939
I319
aI317
aI0
aI01
aa(lp940
I321
aI320
aI0
aI01
aa(lp941
I322
aI320
aI0
aI01
aa(lp942
I324
aI323
aI0
aI01
aa(lp943
I325
aI323
aI0
aI01
aa(lp944
I327
aI326
aI0
aI01
aa(lp945
I328
aI326
aI0
aI01
aa(lp946
I330
aI329
aI0
aI01
aa(lp947
I331
aI329
aI0
aI01
aa(lp948
I333
aI332
aI0
aI01
aa(lp949
I334
aI332
aI0
aI01
aa(lp950
I336
aI335
aI0
aI01
aa(lp951
I337
aI335
aI0
aI01
aa(lp952
I339
aI338
aI0
aI01
aa(lp953
I340
aI338
aI0
aI01
aa(lp954
I342
aI341
aI0
aI01
aa(lp955
I343
aI341
aI0
aI01
aa(lp956
I345
aI344
aI0
aI01
aa(lp957
I346
aI344
aI0
aI01
aa(lp958
I348
aI347
aI0
aI01
aa(lp959
I349
aI347
aI0
aI01
aa(lp960
I351
aI350
aI0
aI01
aa(lp961
I352
aI350
aI0
aI01
aa(lp962
I354
aI353
aI0
aI01
aa(lp963
I355
aI353
aI0
aI01
aa(lp964
I357
aI356
aI0
aI01
aa(lp965
I358
aI356
aI0
aI01
aa(lp966
I360
aI359
aI0
aI01
aa(lp967
I361
aI359
aI0
aI01
aa(lp968
I363
aI362
aI0
aI01
aa(lp969
I364
aI362
aI0
aI01
aa(lp970
I366
aI365
aI0
aI01
aa(lp971
I367
aI365
aI0
aI01
aa(lp972
I369
aI368
aI0
aI01
aa(lp973
I370
aI368
aI0
aI01
aa(lp974
I372
aI371
aI0
aI01
aa(lp975
I373
aI371
aI0
aI01
aa(lp976
I375
aI374
aI0
aI01
aa(lp977
I376
aI374
aI0
aI01
aa(lp978
I378
aI377
aI0
aI01
aa(lp979
I379
aI377
aI0
aI01
aa(lp980
I381
aI380
aI0
aI01
aa(lp981
I382
aI380
aI0
aI01
aa(lp982
I384
aI383
aI0
aI01
aa(lp983
I385
aI383
aI0
aI01
aa(lp984
I387
aI386
aI0
aI01
aa(lp985
I388
aI386
aI0
aI01
aa(lp986
I390
aI389
aI0
aI01
aa(lp987
I391
aI389
aI0
aI01
aa(lp988
I393
aI392
aI0
aI01
aa(lp989
I394
aI392
aI0
aI01
aa(lp990
I396
aI395
aI0
aI01
aa(lp991
I397
aI395
aI0
aI01
aa(lp992
I399
aI398
aI0
aI01
aa(lp993
I400
aI398
aI0
aI01
aa(lp994
I402
aI401
aI0
aI01
aa(lp995
I403
aI401
aI0
aI01
aa(lp996
I405
aI404
aI0
aI01
aa(lp997
I406
aI404
aI0
aI01
aa(lp998
I408
aI407
aI0
aI01
aa(lp999
I409
aI407
aI0
aI01
aa(lp1000
I411
aI410
aI0
aI01
aa(lp1001
I412
aI410
aI0
aI01
aa(lp1002
I414
aI413
aI0
aI01
aa(lp1003
I415
aI413
aI0
aI01
aa(lp1004
I417
aI416
aI0
aI01
aa(lp1005
I418
aI416
aI0
aI01
aa(lp1006
I420
aI419
aI0
aI01
aa(lp1007
I421
aI419
aI0
aI01
aa(lp1008
I423
aI422
aI0
aI01
aa(lp1009
I424
aI422
aI0
aI01
aa(lp1010
I426
aI425
aI0
aI01
aa(lp1011
I427
aI425
aI0
aI01
aa(lp1012
I429
aI428
aI0
aI01
aa(lp1013
I430
aI428
aI0
aI01
aa(lp1014
I432
aI431
aI0
aI01
aa(lp1015
I433
aI431
aI0
aI01
aa(lp1016
I435
aI434
aI0
aI01
aa(lp1017
I436
aI434
aI0
aI01
aa(lp1018
I438
aI437
aI0
aI01
aa(lp1019
I439
aI437
aI0
aI01
aa(lp1020
I441
aI440
aI0
aI01
aa(lp1021
I442
aI440
aI0
aI01
aa(lp1022
I444
aI443
aI0
aI01
aa(lp1023
I445
aI443
aI0
aI01
aa(lp1024
I447
aI446
aI0
aI01
aa(lp1025
I448
aI446
aI0
aI01
aa(lp1026
I450
aI449
aI0
aI01
aa(lp1027
I451
aI449
aI0
aI01
aa(lp1028
I453
aI452
aI0
aI01
aa(lp1029
I454
aI452
aI0
aI01
aa(lp1030
I456
aI455
aI0
aI01
aa(lp1031
I457
aI455
aI0
aI01
aa(lp1032
I459
aI458
aI0
aI01
aa(lp1033
I460
aI458
aI0
aI01
aa(lp1034
I462
aI461
aI0
aI01
aa(lp1035
I463
aI461
aI0
aI01
aa(lp1036
I465
aI464
aI0
aI01
aa(lp1037
I466
aI464
aI0
aI01
aa(lp1038
I468
aI467
aI0
aI01
aa(lp1039
I469
aI467
aI0
aI01
aa(lp1040
I471
aI470
aI0
aI01
aa(lp1041
I472
aI470
aI0
aI01
aa(lp1042
I474
aI473
aI0
aI01
aa(lp1043
I475
aI473
aI0
aI01
aa(lp1044
I477
aI476
aI0
aI01
aa(lp1045
I478
aI476
aI0
aI01
aa(lp1046
I480
aI479
aI0
aI01
aa(lp1047
I481
aI479
aI0
aI01
aa(lp1048
I483
aI482
aI0
aI01
aa(lp1049
I484
aI482
aI0
aI01
aa(lp1050
I486
aI485
aI0
aI01
aa(lp1051
I487
aI485
aI0
aI01
aa(lp1052
I489
aI488
aI0
aI01
aa(lp1053
I490
aI488
aI0
aI01
aa(lp1054
I492
aI491
aI0
aI01
aa(lp1055
I493
aI491
aI0
aI01
aa(lp1056
I495
aI494
aI0
aI01
aa(lp1057
I496
aI494
aI0
aI01
aa(lp1058
I498
aI497
aI0
aI01
aa(lp1059
I499
aI497
aI0
aI01
aa(lp1060
I501
aI500
aI0
aI01
aa(lp1061
I502
aI500
aI0
aI01
aa(lp1062
I504
aI503
aI0
aI01
aa(lp1063
I505
aI503
aI0
aI01
aa(lp1064
I507
aI506
aI0
aI01
aa(lp1065
I508
aI506
aI0
aI01
aa(lp1066
I510
aI509
aI0
aI01
aa(lp1067
I511
aI509
aI0
aI01
aa(lp1068
I513
aI512
aI0
aI01
aa(lp1069
I514
aI512
aI0
aI01
aa(lp1070
I516
aI515
aI0
aI01
aa(lp1071
I517
aI515
aI0
aI01
aa(lp1072
I519
aI518
aI0
aI01
aa(lp1073
I520
aI518
aI0
aI01
aa(lp1074
I522
aI521
aI0
aI01
aa(lp1075
I523
aI521
aI0
aI01
aa(lp1076
I525
aI524
aI0
aI01
aa(lp1077
I526
aI524
aI0
aI01
aa(lp1078
I528
aI527
aI0
aI01
aa(lp1079
I529
aI527
aI0
aI01
aa(lp1080
I531
aI530
aI0
aI01
aa(lp1081
I532
aI530
aI0
aI01
aa(lp1082
I534
aI533
aI0
aI01
aa(lp1083
I535
aI533
aI0
aI01
aa(lp1084
I537
aI536
aI0
aI01
aa(lp1085
I538
aI536
aI0
aI01
aa(lp1086
I540
aI539
aI0
aI01
aa(lp1087
I541
aI539
aI0
aI01
aa(lp1088
I543
aI542
aI0
aI01
aa(lp1089
I544
aI542
aI0
aI01
aa(lp1090
I546
aI545
aI0
aI01
aa(lp1091
I547
aI545
aI0
aI01
aa(lp1092
I549
aI548
aI0
aI01
aa(lp1093
I550
aI548
aI0
aI01
aa(lp1094
I552
aI551
aI0
aI01
aa(lp1095
I553
aI551
aI0
aI01
aa(lp1096
I555
aI554
aI0
aI01
aa(lp1097
I556
aI554
aI0
aI01
aa(lp1098
I558
aI557
aI0
aI01
aa(lp1099
I559
aI557
aI0
aI01
aa(lp1100
I561
aI560
aI0
aI01
aa(lp1101
I562
aI560
aI0
aI01
aa(lp1102
I564
aI563
aI0
aI01
aa(lp1103
I565
aI563
aI0
aI01
aa(lp1104
I567
aI566
aI0
aI01
aa(lp1105
I568
aI566
aI0
aI01
aa(lp1106
I570
aI569
aI0
aI01
aa(lp1107
I571
aI569
aI0
aI01
aa(lp1108
I573
aI572
aI0
aI01
aa(lp1109
I574
aI572
aI0
aI01
aa(lp1110
I576
aI575
aI0
aI01
aa(lp1111
I577
aI575
aI0
aI01
aa(lp1112
I579
aI578
aI0
aI01
aa(lp1113
I580
aI578
aI0
aI01
aa(lp1114
I582
aI581
aI0
aI01
aa(lp1115
I583
aI581
aI0
aI01
aa(lp1116
I585
aI584
aI0
aI01
aa(lp1117
I586
aI584
aI0
aI01
aa(lp1118
I588
aI587
aI0
aI01
aa(lp1119
I589
aI587
aI0
aI01
aa(lp1120
I591
aI590
aI0
aI01
aa(lp1121
I592
aI590
aI0
aI01
aa(lp1122
I594
aI593
aI0
aI01
aa(lp1123
I595
aI593
aI0
aI01
aa(lp1124
I597
aI596
aI0
aI01
aa(lp1125
I598
aI596
aI0
aI01
aa(lp1126
I600
aI599
aI0
aI01
aa(lp1127
I601
aI599
aI0
aI01
aa(lp1128
I603
aI602
aI0
aI01
aa(lp1129
I604
aI602
aI0
aI01
aa(lp1130
I606
aI605
aI0
aI01
aa(lp1131
I607
aI605
aI0
aI01
aa(lp1132
I609
aI608
aI0
aI01
aa(lp1133
I610
aI608
aI0
aI01
aa(lp1134
I612
aI611
aI0
aI01
aa(lp1135
I613
aI611
aI0
aI01
aa(lp1136
I615
aI614
aI0
aI01
aa(lp1137
I616
aI614
aI0
aI01
aa(lp1138
I618
aI617
aI0
aI01
aa(lp1139
I619
aI617
aI0
aI01
aa(lp1140
I621
aI620
aI0
aI01
aa(lp1141
I622
aI620
aI0
aI01
aa(lp1142
I624
aI623
aI0
aI01
aa(lp1143
I625
aI623
aI0
aI01
aa(lp1144
I627
aI626
aI0
aI01
aa(lp1145
I628
aI626
aI0
aI01
aa(lp1146
I630
aI629
aI0
aI01
aa(lp1147
I631
aI629
aI0
aI01
aa(lp1148
I633
aI632
aI0
aI01
aa(lp1149
I634
aI632
aI0
aI01
aa(lp1150
I636
aI635
aI0
aI01
aa(lp1151
I637
aI635
aI0
aI01
aa(lp1152
I639
aI638
aI0
aI01
aa(lp1153
I640
aI638
aI0
aI01
aa(lp1154
I642
aI641
aI0
aI01
aa(lp1155
I643
aI641
aI0
aI01
aa(lp1156
I645
aI644
aI0
aI01
aa(lp1157
I646
aI644
aI0
aI01
aa(lp1158
I648
aI647
aI0
aI01
aa(lp1159
I649
aI647
aI0
aI01
aasS'parameters'
p1160
(lp1161
(lp1162
F0.95720000000000005
aF2215.8464000000004
aa(lp1163
F1.0900000000000001
aF1422.5599999999999
aasg706
(lp1164
S'OW:HW'
p1165
aS'HC:CT'
p1166
asg694
g720
sS'is12Interaction'
p1167
I01
sS'parameterFields'
p1168
(lp1169
S'equilibriumValue'
p1170
aS'forceConstant'
p1171
asS'termFields'
p1172
(lp1173
S'atom1'
p1174
aS'atom2'
p1175
aS'parameter'
p1176
ag24
asbsS'Urey-Bradley'
p1177
g1
(g721
tRp1178
(dp1179
g724
(lp1180
(lp1181
I7
aI6
aI0
aI01
aa(lp1182
I10
aI9
aI0
aI01
aa(lp1183
I13
aI12
aI0
aI01
aa(lp1184
I16
aI15
aI0
aI01
aa(lp1185
I19
aI18
aI0
aI01
aa(lp1186
I22
aI21
aI0
aI01
aa(lp1187
I25
aI24
aI0
aI01
aa(lp1188
I28
aI27
aI0
aI01
aa(lp1189
I31
aI30
aI0
aI01
aa(lp1190
I34
aI33
aI0
aI01
aa(lp1191
I37
aI36
aI0
aI01
aa(lp1192
I40
aI39
aI0
aI01
aa(lp1193
I43
aI42
aI0
aI01
aa(lp1194
I46
aI45
aI0
aI01
aa(lp1195
I49
aI48
aI0
aI01
aa(lp1196
I52
aI51
aI0
aI01
aa(lp1197
I55
aI54
aI0
aI01
aa(lp1198
I58
aI57
aI0
aI01
aa(lp1199
I61
aI60
aI0
aI01
aa(lp1200
I64
aI63
aI0
aI01
aa(lp1201
I67
aI66
aI0
aI01
aa(lp1202
I70
aI69
aI0
aI01
aa(lp1203
I73
aI72
aI0
aI01
aa(lp1204
I76
aI75
aI0
aI01
aa(lp1205
I79
aI78
aI0
aI01
aa(lp1206
I82
aI81
aI0
aI01
aa(lp1207
I85
aI84
aI0
aI01
aa(lp1208
I88
aI87
aI0
aI01
aa(lp1209
I91
aI90
aI0
aI01
aa(lp1210
I94
aI93
aI0
aI01
aa(lp1211
I97
aI96
aI0
aI01
aa(lp1212
I100
aI99
aI0
aI01
aa(lp1213
I103
aI102
aI0
aI01
aa(lp1214
I106
aI105
aI0
aI01
aa(lp1215
I109
aI108
aI0
aI01
aa(lp1216
I112
aI111
aI0
aI01
aa(lp1217
I115
aI114
aI0
aI01
aa(lp1218
I118
aI117
aI0
aI01
aa(lp1219
I121
aI120
aI0
aI01
aa(lp1220
I124
aI123
aI0
aI01
aa(lp1221
I127
aI126
aI0
aI01
aa(lp1222
I130
aI129
aI0
aI01
aa(lp1223
I133
aI132
aI0
aI01
aa(lp1224
I136
aI135
aI0
aI01
aa(lp1225
I139
aI138
aI0
aI01
aa(lp1226
I142
aI141
aI0
aI01
aa(lp1227
I145
aI144
aI0
aI01
aa(lp1228
I148
aI147
aI0
aI01
aa(lp1229
I151
aI150
aI0
aI01
aa(lp1230
I154
aI153
aI0
aI01
aa(lp1231
I157
aI156
aI0
aI01
aa(lp1232
I160
aI159
aI0
aI01
aa(lp1233
I163
aI162
aI0
aI01
aa(lp1234
I166
aI165
aI0
aI01
aa(lp1235
I169
aI168
aI0
aI01
aa(lp1236
I172
aI171
aI0
aI01
aa(lp1237
I175
aI174
aI0
aI01
aa(lp1238
I178
aI177
aI0
aI01
aa(lp1239
I181
aI180
aI0
aI01
aa(lp1240
I184
aI183
aI0
aI01
aa(lp1241
I187
aI186
aI0
aI01
aa(lp1242
I190
aI189
aI0
aI01
aa(lp1243
I193
aI192
aI0
aI01
aa(lp1244
I196
aI195
aI0
aI01
aa(lp1245
I199
aI198
aI0
aI01
aa(lp1246
I202
aI201
aI0
aI01
aa(lp1247
I205
aI204
aI0
aI01
aa(lp1248
I208
aI207
aI0
aI01
aa(lp1249
I211
aI210
aI0
aI01
aa(lp1250
I214
aI213
aI0
aI01
aa(lp1251
I217
aI216
aI0
aI01
aa(lp1252
I220
aI219
aI0
aI01
aa(lp1253
I223
aI222
aI0
aI01
aa(lp1254
I226
aI225
aI0
aI01
aa(lp1255
I229
aI228
aI0
aI01
aa(lp1256
I232
aI231
aI0
aI01
aa(lp1257
I235
aI234
aI0
aI01
aa(lp1258
I238
aI237
aI0
aI01
aa(lp1259
I241
aI240
aI0
aI01
aa(lp1260
I244
aI243
aI0
aI01
aa(lp1261
I247
aI246
aI0
aI01
aa(lp1262
I250
aI249
aI0
aI01
aa(lp1263
I253
aI252
aI0
aI01
aa(lp1264
I256
aI255
aI0
aI01
aa(lp1265
I259
aI258
aI0
aI01
aa(lp1266
I262
aI261
aI0
aI01
aa(lp1267
I265
aI264
aI0
aI01
aa(lp1268
I268
aI267
aI0
aI01
aa(lp1269
I271
aI270
aI0
aI01
aa(lp1270
I274
aI273
aI0
aI01
aa(lp1271
I277
aI276
aI0
aI01
aa(lp1272
I280
aI279
aI0
aI01
aa(lp1273
I283
aI282
aI0
aI01
aa(lp1274
I286
aI285
aI0
aI01
aa(lp1275
I289
aI288
aI0
aI01
aa(lp1276
I292
aI291
aI0
aI01
aa(lp1277
I295
aI294
aI0
aI01
aa(lp1278
I298
aI297
aI0
aI01
aa(lp1279
I301
aI300
aI0
aI01
aa(lp1280
I304
aI303
aI0
aI01
aa(lp1281
I307
aI306
aI0
aI01
aa(lp1282
I310
aI309
aI0
aI01
aa(lp1283
I313
aI312
aI0
aI01
aa(lp1284
I316
aI315
aI0
aI01
aa(lp1285
I319
aI318
aI0
aI01
aa(lp1286
I322
aI321
aI0
aI01
aa(lp1287
I325
aI324
aI0
aI01
aa(lp1288
I328
aI327
aI0
aI01
aa(lp1289
I331
aI330
aI0
aI01
aa(lp1290
I334
aI333
aI0
aI01
aa(lp1291
I337
aI336
aI0
aI01
aa(lp1292
I340
aI339
aI0
aI01
aa(lp1293
I343
aI342
aI0
aI01
aa(lp1294
I346
aI345
aI0
aI01
aa(lp1295
I349
aI348
aI0
aI01
aa(lp1296
I352
aI351
aI0
aI01
aa(lp1297
I355
aI354
aI0
aI01
aa(lp1298
I358
aI357
aI0
aI01
aa(lp1299
I361
aI360
aI0
aI01
aa(lp1300
I364
aI363
aI0
aI01
aa(lp1301
I367
aI366
aI0
aI01
aa(lp1302
I370
aI369
aI0
aI01
aa(lp1303
I373
aI372
aI0
aI01
aa(lp1304
I376
aI375
aI0
aI01
aa(lp1305
I379
aI378
aI0
aI01
aa(lp1306
I382
aI381
aI0
aI01
aa(lp1307
I385
aI384
aI0
aI01
aa(lp1308
I388
aI387
aI0
aI01
aa(lp1309
I391
aI390
aI0
aI01
aa(lp1310
I394
aI393
aI0
aI01
aa(lp1311
I397
aI396
aI0
aI01
aa(lp1312
I400
aI399
aI0
aI01
aa(lp1313
I403
aI402
aI0
aI01
aa(lp1314
I406
aI405
aI0
aI01
aa(lp1315
I409
aI408
aI0
aI01
aa(lp1316
I412
aI411
aI0
aI01
aa(lp1317
I415
aI414
aI0
aI01
aa(lp1318
I418
aI417
aI0
aI01
aa(lp1319
I421
aI420
aI0
aI01
aa(lp1320
I424
aI423
aI0
aI01
aa(lp1321
I427
aI426
aI0
aI01
aa(lp1322
I430
aI429
aI0
aI01
aa(lp1323
I433
aI432
aI0
aI01
aa(lp1324
I436
aI435
aI0
aI01
aa(lp1325
I439
aI438
aI0
aI01
aa(lp1326
I442
aI441
aI0
aI01
aa(lp1327
I445
aI444
aI0
aI01
aa(lp1328
I448
aI447
aI0
aI01
aa(lp1329
I451
aI450
aI0
aI01
aa(lp1330
I454
aI453
aI0
aI01
aa(lp1331
I457
aI456
aI0
aI01
aa(lp1332
I460
aI459
aI0
aI01
aa(lp1333
I463
aI462
aI0
aI01
aa(lp1334
I466
aI465
aI0
aI01
aa(lp1335
I469
aI468
aI0
aI01
aa(lp1336
I472
aI471
aI0
aI01
aa(lp1337
I475
aI474
aI0
aI01
aa(lp1338
I478
aI477
aI0
aI01
aa(lp1339
I481
aI480
aI0
aI01
aa(lp1340
I484
aI483
aI0
aI01
aa(lp1341
I487
aI486
aI0
aI01
aa(lp1342
I490
aI489
aI0
aI01
aa(lp1343
I493
aI492
aI0
aI01
aa(lp1344
I496
aI495
aI0
aI01
aa(lp1345
I499
aI498
aI0
aI01
aa(lp1346
I502
aI501
aI0
aI01
aa(lp1347
I505
aI504
aI0
aI01
aa(lp1348
I508
aI507
aI0
aI01
aa(lp1349
I511
aI510
aI0
aI01
aa(lp1350
I514
aI513
aI0
aI01
aa(lp1351
I517
aI516
aI0
aI01
aa(lp1352
I520
aI519
aI0
aI01
aa(lp1353
I523
aI522
aI0
aI01
aa(lp1354
I526
aI525
aI0
aI01
aa(lp1355
I529
aI528
aI0
aI01
aa(lp1356
I532
aI531
aI0
aI01
aa(lp1357
I535
aI534
aI0
aI01
aa(lp1358
I538
aI537
aI0
aI01
aa(lp1359
I541
aI540
aI0
aI01
aa(lp1360
I544
aI543
aI0
aI01
aa(lp1361
I547
aI546
aI0
aI01
aa(lp1362
I550
aI549
aI0
aI01
aa(lp1363
I553
aI552
aI0
aI01
aa(lp1364
I556
aI555
aI0
aI01
aa(lp1365
I559
aI558
aI0
aI01
aa(lp1366
I562
aI561
aI0
aI01
aa(lp1367
I565
aI564
aI0
aI01
aa(lp1368
I568
aI567
aI0
aI01
aa(lp1369
I571
aI570
aI0
aI01
aa(lp1370
I574
aI573
aI0
aI01
aa(lp1371
I577
aI576
aI0
aI01
aa(lp1372
I580
aI579
aI0
aI01
aa(lp1373
I583
aI582
aI0
aI01
aa(lp1374
I586
aI585
aI0
aI01
aa(lp1375
I589
aI588
aI0
aI01
aa(lp1376
I592
aI591
aI0
aI01
aa(lp1377
I595
aI594
aI0
aI01
aa(lp1378
I598
aI597
aI0
aI01
aa(lp1379
I601
aI600
aI0
aI01
aa(lp1380
I604
aI603
aI0
aI01
aa(lp1381
I607
aI606
aI0
aI01
aa(lp1382
I610
aI609
aI0
aI01
aa(lp1383
I613
aI612
aI0
aI01
aa(lp1384
I616
aI615
aI0
aI01
aa(lp1385
I619
aI618
aI0
aI01
aa(lp1386
I622
aI621
aI0
aI01
aa(lp1387
I625
aI624
aI0
aI01
aa(lp1388
I628
aI627
aI0
aI01
aa(lp1389
I631
aI630
aI0
aI01
aa(lp1390
I634
aI633
aI0
aI01
aa(lp1391
I637
aI636
aI0
aI01
aa(lp1392
I640
aI639
aI0
aI01
aa(lp1393
I643
aI642
aI0
aI01
aa(lp1394
I646
aI645
aI0
aI01
aa(lp1395
I649
aI648
aI0
aI01
aasg1160
(lp1396
(lp1397
F1.5139
aF160.03800000000001
aasg706
(lp1398
S'HW:OW:HW'
p1399
asg694
g1177
sg1167
I00
sg1168
(lp1400
g1170
ag1171
asg1172
(lp1401
g1174
ag1175
ag1176
ag24
asbsS'Harmonic Angle'
p1402
g1
(cpMolecule.HarmonicAngleContainer
HarmonicAngleContainer
p1403
tRp1404
(dp1405
g724
(lp1406
(lp1407
I2
aI0
aI1
aI0
aI01
aa(lp1408
I3
aI0
aI1
aI0
aI01
aa(lp1409
I3
aI0
aI2
aI0
aI01
aa(lp1410
I4
aI0
aI1
aI0
aI01
aa(lp1411
I4
aI0
aI2
aI0
aI01
aa(lp1412
I4
aI0
aI3
aI0
aI01
aa(lp1413
I7
aI5
aI6
aI1
aI01
aa(lp1414
I10
aI8
aI9
aI1
aI01
aa(lp1415
I13
aI11
aI12
aI1
aI01
aa(lp1416
I16
aI14
aI15
aI1
aI01
aa(lp1417
I19
aI17
aI18
aI1
aI01
aa(lp1418
I22
aI20
aI21
aI1
aI01
aa(lp1419
I25
aI23
aI24
aI1
aI01
aa(lp1420
I28
aI26
aI27
aI1
aI01
aa(lp1421
I31
aI29
aI30
aI1
aI01
aa(lp1422
I34
aI32
aI33
aI1
aI01
aa(lp1423
I37
aI35
aI36
aI1
aI01
aa(lp1424
I40
aI38
aI39
aI1
aI01
aa(lp1425
I43
aI41
aI42
aI1
aI01
aa(lp1426
I46
aI44
aI45
aI1
aI01
aa(lp1427
I49
aI47
aI48
aI1
aI01
aa(lp1428
I52
aI50
aI51
aI1
aI01
aa(lp1429
I55
aI53
aI54
aI1
aI01
aa(lp1430
I58
aI56
aI57
aI1
aI01
aa(lp1431
I61
aI59
aI60
aI1
aI01
aa(lp1432
I64
aI62
aI63
aI1
aI01
aa(lp1433
I67
aI65
aI66
aI1
aI01
aa(lp1434
I70
aI68
aI69
aI1
aI01
aa(lp1435
I73
aI71
aI72
aI1
aI01
aa(lp1436
I76
aI74
aI75
aI1
aI01
aa(lp1437
I79
aI77
aI78
aI1
aI01
aa(lp1438
I82
aI80
aI81
aI1
aI01
aa(lp1439
I85
aI83
aI84
aI1
aI01
aa(lp1440
I88
aI86
aI87
aI1
aI01
aa(lp1441
I91
aI89
aI90
aI1
aI01
aa(lp1442
I94
aI92
aI93
aI1
aI01
aa(lp1443
I97
aI95
aI96
aI1
aI01
aa(lp1444
I100
aI98
aI99
aI1
aI01
aa(lp1445
I103
aI101
aI102
aI1
aI01
aa(lp1446
I106
aI104
aI105
aI1
aI01
aa(lp1447
I109
aI107
aI108
aI1
aI01
aa(lp1448
I112
aI110
aI111
aI1
aI01
aa(lp1449
I115
aI113
aI114
aI1
aI01
aa(lp1450
I118
aI116
aI117
aI1
aI01
aa(lp1451
I121
aI119
aI120
aI1
aI01
aa(lp1452
I124
aI122
aI123
aI1
aI01
aa(lp1453
I127
aI125
aI126
aI1
aI01
aa(lp1454
I130
aI128
aI129
aI1
aI01
aa(lp1455
I133
aI131
aI132
aI1
aI01
aa(lp1456
I136
aI134
aI135
aI1
aI01
aa(lp1457
I139
aI137
aI138
aI1
aI01
aa(lp1458
I142
aI140
aI141
aI1
aI01
aa(lp1459
I145
aI143
aI144
aI1
aI01
aa(lp1460
I148
aI146
aI147
aI1
aI01
aa(lp1461
I151
aI149
aI150
aI1
aI01
aa(lp1462
I154
aI152
aI153
aI1
aI01
aa(lp1463
I157
aI155
aI156
aI1
aI01
aa(lp1464
I160
aI158
aI159
aI1
aI01
aa(lp1465
I163
aI161
aI162
aI1
aI01
aa(lp1466
I166
aI164
aI165
aI1
aI01
aa(lp1467
I169
aI167
aI168
aI1
aI01
aa(lp1468
I172
aI170
aI171
aI1
aI01
aa(lp1469
I175
aI173
aI174
aI1
aI01
aa(lp1470
I178
aI176
aI177
aI1
aI01
aa(lp1471
I181
aI179
aI180
aI1
aI01
aa(lp1472
I184
aI182
aI183
aI1
aI01
aa(lp1473
I187
aI185
aI186
aI1
aI01
aa(lp1474
I190
aI188
aI189
aI1
aI01
aa(lp1475
I193
aI191
aI192
aI1
aI01
aa(lp1476
I196
aI194
aI195
aI1
aI01
aa(lp1477
I199
aI197
aI198
aI1
aI01
aa(lp1478
I202
aI200
aI201
aI1
aI01
aa(lp1479
I205
aI203
aI204
aI1
aI01
aa(lp1480
I208
aI206
aI207
aI1
aI01
aa(lp1481
I211
aI209
aI210
aI1
aI01
aa(lp1482
I214
aI212
aI213
aI1
aI01
aa(lp1483
I217
aI215
aI216
aI1
aI01
aa(lp1484
I220
aI218
aI219
aI1
aI01
aa(lp1485
I223
aI221
aI222
aI1
aI01
aa(lp1486
I226
aI224
aI225
aI1
aI01
aa(lp1487
I229
aI227
aI228
aI1
aI01
aa(lp1488
I232
aI230
aI231
aI1
aI01
aa(lp1489
I235
aI233
aI234
aI1
aI01
aa(lp1490
I238
aI236
aI237
aI1
aI01
aa(lp1491
I241
aI239
aI240
aI1
aI01
aa(lp1492
I244
aI242
aI243
aI1
aI01
aa(lp1493
I247
aI245
aI246
aI1
aI01
aa(lp1494
I250
aI248
aI249
aI1
aI01
aa(lp1495
I253
aI251
aI252
aI1
aI01
aa(lp1496
I256
aI254
aI255
aI1
aI01
aa(lp1497
I259
aI257
aI258
aI1
aI01
aa(lp1498
I262
aI260
aI261
aI1
aI01
aa(lp1499
I265
aI263
aI264
aI1
aI01
aa(lp1500
I268
aI266
aI267
aI1
aI01
aa(lp1501
I271
aI269
aI270
aI1
aI01
aa(lp1502
I274
aI272
aI273
aI1
aI01
aa(lp1503
I277
aI275
aI276
aI1
aI01
aa(lp1504
I280
aI278
aI279
aI1
aI01
aa(lp1505
I283
aI281
aI282
aI1
aI01
aa(lp1506
I286
aI284
aI285
aI1
aI01
aa(lp1507
I289
aI287
aI288
aI1
aI01
aa(lp1508
I292
aI290
aI291
aI1
aI01
aa(lp1509
I295
aI293
aI294
aI1
aI01
aa(lp1510
I298
aI296
aI297
aI1
aI01
aa(lp1511
I301
aI299
aI300
aI1
aI01
aa(lp1512
I304
aI302
aI303
aI1
aI01
aa(lp1513
I307
aI305
aI306
aI1
aI01
aa(lp1514
I310
aI308
aI309
aI1
aI01
aa(lp1515
I313
aI311
aI312
aI1
aI01
aa(lp1516
I316
aI314
aI315
aI1
aI01
aa(lp1517
I319
aI317
aI318
aI1
aI01
aa(lp1518
I322
aI320
aI321
aI1
aI01
aa(lp1519
I325
aI323
aI324
aI1
aI01
aa(lp1520
I328
aI326
aI327
aI1
aI01
aa(lp1521
I331
aI329
aI330
aI1
aI01
aa(lp1522
I334
aI332
aI333
aI1
aI01
aa(lp1523
I337
aI335
aI336
aI1
aI01
aa(lp1524
I340
aI338
aI339
aI1
aI01
aa(lp1525
I343
aI341
aI342
aI1
aI01
aa(lp1526
I346
aI344
aI345
aI1
aI01
aa(lp1527
I349
aI347
aI348
aI1
aI01
aa(lp1528
I352
aI350
aI351
aI1
aI01
aa(lp1529
I355
aI353
aI354
aI1
aI01
aa(lp1530
I358
aI356
aI357
aI1
aI01
aa(lp1531
I361
aI359
aI360
aI1
aI01
aa(lp1532
I364
aI362
aI363
aI1
aI01
aa(lp1533
I367
aI365
aI366
aI1
aI01
aa(lp1534
I370
aI368
aI369
aI1
aI01
aa(lp1535
I373
aI371
aI372
aI1
aI01
aa(lp1536
I376
aI374
aI375
aI1
aI01
aa(lp1537
I379
aI377
aI378
aI1
aI01
aa(lp1538
I382
aI380
aI381
aI1
aI01
aa(lp1539
I385
aI383
aI384
aI1
aI01
aa(lp1540
I388
aI386
aI387
aI1
aI01
aa(lp1541
I391
aI389
aI390
aI1
aI01
aa(lp1542
I394
aI392
aI393
aI1
aI01
aa(lp1543
I397
aI395
aI396
aI1
aI01
aa(lp1544
I400
aI398
aI399
aI1
aI01
aa(lp1545
I403
aI401
aI402
aI1
aI01
aa(lp1546
I406
aI404
aI405
aI1
aI01
aa(lp1547
I409
aI407
aI408
aI1
aI01
aa(lp1548
I412
aI410
aI411
aI1
aI01
aa(lp1549
I415
aI413
aI414
aI1
aI01
aa(lp1550
I418
aI416
aI417
aI1
aI01
aa(lp1551
I421
aI419
aI420
aI1
aI01
aa(lp1552
I424
aI422
aI423
aI1
aI01
aa(lp1553
I427
aI425
aI426
aI1
aI01
aa(lp1554
I430
aI428
aI429
aI1
aI01
aa(lp1555
I433
aI431
aI432
aI1
aI01
aa(lp1556
I436
aI434
aI435
aI1
aI01
aa(lp1557
I439
aI437
aI438
aI1
aI01
aa(lp1558
I442
aI440
aI441
aI1
aI01
aa(lp1559
I445
aI443
aI444
aI1
aI01
aa(lp1560
I448
aI446
aI447
aI1
aI01
aa(lp1561
I451
aI449
aI450
aI1
aI01
aa(lp1562
I454
aI452
aI453
aI1
aI01
aa(lp1563
I457
aI455
aI456
aI1
aI01
aa(lp1564
I460
aI458
aI459
aI1
aI01
aa(lp1565
I463
aI461
aI462
aI1
aI01
aa(lp1566
I466
aI464
aI465
aI1
aI01
aa(lp1567
I469
aI467
aI468
aI1
aI01
aa(lp1568
I472
aI470
aI471
aI1
aI01
aa(lp1569
I475
aI473
aI474
aI1
aI01
aa(lp1570
I478
aI476
aI477
aI1
aI01
aa(lp1571
I481
aI479
aI480
aI1
aI01
aa(lp1572
I484
aI482
aI483
aI1
aI01
aa(lp1573
I487
aI485
aI486
aI1
aI01
aa(lp1574
I490
aI488
aI489
aI1
aI01
aa(lp1575
I493
aI491
aI492
aI1
aI01
aa(lp1576
I496
aI494
aI495
aI1
aI01
aa(lp1577
I499
aI497
aI498
aI1
aI01
aa(lp1578
I502
aI500
aI501
aI1
aI01
aa(lp1579
I505
aI503
aI504
aI1
aI01
aa(lp1580
I508
aI506
aI507
aI1
aI01
aa(lp1581
I511
aI509
aI510
aI1
aI01
aa(lp1582
I514
aI512
aI513
aI1
aI01
aa(lp1583
I517
aI515
aI516
aI1
aI01
aa(lp1584
I520
aI518
aI519
aI1
aI01
aa(lp1585
I523
aI521
aI522
aI1
aI01
aa(lp1586
I526
aI524
aI525
aI1
aI01
aa(lp1587
I529
aI527
aI528
aI1
aI01
aa(lp1588
I532
aI530
aI531
aI1
aI01
aa(lp1589
I535
aI533
aI534
aI1
aI01
aa(lp1590
I538
aI536
aI537
aI1
aI01
aa(lp1591
I541
aI539
aI540
aI1
aI01
aa(lp1592
I544
aI542
aI543
aI1
aI01
aa(lp1593
I547
aI545
aI546
aI1
aI01
aa(lp1594
I550
aI548
aI549
aI1
aI01
aa(lp1595
I553
aI551
aI552
aI1
aI01
aa(lp1596
I556
aI554
aI555
aI1
aI01
aa(lp1597
I559
aI557
aI558
aI1
aI01
aa(lp1598
I562
aI560
aI561
aI1
aI01
aa(lp1599
I565
aI563
aI564
aI1
aI01
aa(lp1600
I568
aI566
aI567
aI1
aI01
aa(lp1601
I571
aI569
aI570
aI1
aI01
aa(lp1602
I574
aI572
aI573
aI1
aI01
aa(lp1603
I577
aI575
aI576
aI1
aI01
aa(lp1604
I580
aI578
aI579
aI1
aI01
aa(lp1605
I583
aI581
aI582
aI1
aI01
aa(lp1606
I586
aI584
aI585
aI1
aI01
aa(lp1607
I589
aI587
aI588
aI1
aI01
aa(lp1608
I592
aI590
aI591
aI1
aI01
aa(lp1609
I595
aI593
aI594
aI1
aI01
aa(lp1610
I598
aI596
aI597
aI1
aI01
aa(lp1611
I601
aI599
aI600
aI1
aI01
aa(lp1612
I604
aI602
aI603
aI1
aI01
aa(lp1613
I607
aI605
aI606
aI1
aI01
aa(lp1614
I610
aI608
aI609
aI1
aI01
aa(lp1615
I613
aI611
aI612
aI1
aI01
aa(lp1616
I616
aI614
aI615
aI1
aI01
aa(lp1617
I619
aI617
aI618
aI1
aI01
aa(lp1618
I622
aI620
aI621
aI1
aI01
aa(lp1619
I625
aI623
aI624
aI1
aI01
aa(lp1620
I628
aI626
aI627
aI1
aI01
aa(lp1621
I631
aI629
aI630
aI1
aI01
aa(lp1622
I634
aI632
aI633
aI1
aI01
aa(lp1623
I637
aI635
aI636
aI1
aI01
aa(lp1624
I640
aI638
aI639
aI1
aI01
aa(lp1625
I643
aI641
aI642
aI1
aI01
aa(lp1626
I646
aI644
aI645
aI1
aI01
aa(lp1627
I649
aI647
aI648
aI1
aI01
aasg1160
(lp1628
(lp1629
F1.8814649336498872
aF138.072
aa(lp1630
F1.8242181341844732
aF142.46519999999998
aasg706
(lp1631
S'HC:CT:HC'
p1632
aS'HW:OW:HW'
p1633
asg694
g1402
sg1168
(lp1634
g1170
ag1171
asg1172
(lp1635
g1174
ag1175
aS'atom3'
p1636
aS'atom4'
p1637
ag1176
ag24
asbsbsS'ljParameters14'
p1638
g1
(g703
tRp1639
(dp1640
g706
(lp1641
g30
ag31
ag32
ag33
asg694
S'1-4 Lennard-Jones'
p1642
sg709
(lp1643
F0.138072
aF0.062759999999999996
aF0
aF0.31819320000000006
asg711
I4
sg712
(lp1644
F3.5
aF2.5
aF0
aF3.1506099999999999
asg714
g715
sbsS'exclusions'
p1645
g1
(g687
tRp1646
(dp1647
S'items'
p1648
(lp1649
I1
aI0
aI2
aI0
aI2
aI1
aI3
aI0
aI3
aI1
aI3
aI2
aI4
aI0
aI4
aI1
aI4
aI2
aI4
aI3
aI6
aI5
aI7
aI5
aI7
aI6
aI9
aI8
aI10
aI8
aI10
aI9
aI12
aI11
aI13
aI11
aI13
aI12
aI15
aI14
aI16
aI14
aI16
aI15
aI18
aI17
aI19
aI17
aI19
aI18
aI21
aI20
aI22
aI20
aI22
aI21
aI24
aI23
aI25
aI23
aI25
aI24
aI27
aI26
aI28
aI26
aI28
aI27
aI30
aI29
aI31
aI29
aI31
aI30
aI33
aI32
aI34
aI32
aI34
aI33
aI36
aI35
aI37
aI35
aI37
aI36
aI39
aI38
aI40
aI38
aI40
aI39
aI42
aI41
aI43
aI41
aI43
aI42
aI45
aI44
aI46
aI44
aI46
aI45
aI48
aI47
aI49
aI47
aI49
aI48
aI51
aI50
aI52
aI50
aI52
aI51
aI54
aI53
aI55
aI53
aI55
aI54
aI57
aI56
aI58
aI56
aI58
aI57
aI60
aI59
aI61
aI59
aI61
aI60
aI63
aI62
aI64
aI62
aI64
aI63
aI66
aI65
aI67
aI65
aI67
aI66
aI69
aI68
aI70
aI68
aI70
aI69
aI72
aI71
aI73
aI71
aI73
aI72
aI75
aI74
aI76
aI74
aI76
aI75
aI78
aI77
aI79
aI77
aI79
aI78
aI81
aI80
aI82
aI80
aI82
aI81
aI84
aI83
aI85
aI83
aI85
aI84
aI87
aI86
aI88
aI86
aI88
aI87
aI90
aI89
aI91
aI89
aI91
aI90
aI93
aI92
aI94
aI92
aI94
aI93
aI96
aI95
aI97
aI95
aI97
aI96
aI99
aI98
aI100
aI98
aI100
aI99
aI102
aI101
aI103
aI101
aI103
aI102
aI105
aI104
aI106
aI104
aI106
aI105
aI108
aI107
aI109
aI107
aI109
aI108
aI111
aI110
aI112
aI110
aI112
aI111
aI114
aI113
aI115
aI113
aI115
aI114
aI117
aI116
aI118
aI116
aI118
aI117
aI120
aI119
aI121
aI119
aI121
aI120
aI123
aI122
aI124
aI122
aI124
aI123
aI126
aI125
aI127
aI125
aI127
aI126
aI129
aI128
aI130
aI128
aI130
aI129
aI132
aI131
aI133
aI131
aI133
aI132
aI135
aI134
aI136
aI134
aI136
aI135
aI138
aI137
aI139
aI137
aI139
aI138
aI141
aI140
aI142
aI140
aI142
aI141
aI144
aI143
aI145
aI143
aI145
aI144
aI147
aI146
aI148
aI146
aI148
aI147
aI150
aI149
aI151
aI149
aI151
aI150
aI153
aI152
aI154
aI152
aI154
aI153
aI156
aI155
aI157
aI155
aI157
aI156
aI159
aI158
aI160
aI158
aI160
aI159
aI162
aI161
aI163
aI161
aI163
aI162
aI165
aI164
aI166
aI164
aI166
aI165
aI168
aI167
aI169
aI167
aI169
aI168
aI171
aI170
aI172
aI170
aI172
aI171
aI174
aI173
aI175
aI173
aI175
aI174
aI177
aI176
aI178
aI176
aI178
aI177
aI180
aI179
aI181
aI179
aI181
aI180
aI183
aI182
aI184
aI182
aI184
aI183
aI186
aI185
aI187
aI185
aI187
aI186
aI189
aI188
aI190
aI188
aI190
aI189
aI192
aI191
aI193
aI191
aI193
aI192
aI195
aI194
aI196
aI194
aI196
aI195
aI198
aI197
aI199
aI197
aI199
aI198
aI201
aI200
aI202
aI200
aI202
aI201
aI204
aI203
aI205
aI203
aI205
aI204
aI207
aI206
aI208
aI206
aI208
aI207
aI210
aI209
aI211
aI209
aI211
aI210
aI213
aI212
aI214
aI212
aI214
aI213
aI216
aI215
aI217
aI215
aI217
aI216
aI219
aI218
aI220
aI218
aI220
aI219
aI222
aI221
aI223
aI221
aI223
aI222
aI225
aI224
aI226
aI224
aI226
aI225
aI228
aI227
aI229
aI227
aI229
aI228
aI231
aI230
aI232
aI230
aI232
aI231
aI234
aI233
aI235
aI233
aI235
aI234
aI237
aI236
aI238
aI236
aI238
aI237
aI240
aI239
aI241
aI239
aI241
aI240
aI243
aI242
aI244
aI242
aI244
aI243
aI246
aI245
aI247
aI245
aI247
aI246
aI249
aI248
aI250
aI248
aI250
aI249
aI252
aI251
aI253
aI251
aI253
aI252
aI255
aI254
aI256
aI254
aI256
aI255
aI258
aI257
aI259
aI257
aI259
aI258
aI261
aI260
aI262
aI260
aI262
aI261
aI264
aI263
aI265
aI263
aI265
aI264
aI267
aI266
aI268
aI266
aI268
aI267
aI270
aI269
aI271
aI269
aI271
aI270
aI273
aI272
aI274
aI272
aI274
aI273
aI276
aI275
aI277
aI275
aI277
aI276
aI279
aI278
aI280
aI278
aI280
aI279
aI282
aI281
aI283
aI281
aI283
aI282
aI285
aI284
aI286
aI284
aI286
aI285
aI288
aI287
aI289
aI287
aI289
aI288
aI291
aI290
aI292
aI290
aI292
aI291
aI294
aI293
aI295
aI293
aI295
aI294
aI297
aI296
aI298
aI296
aI298
aI297
aI300
aI299
aI301
aI299
aI301
aI300
aI303
aI302
aI304
aI302
aI304
aI303
aI306
aI305
aI307
aI305
aI307
aI306
aI309
aI308
aI310
aI308
aI310
aI309
aI312
aI311
aI313
aI311
aI313
aI312
aI315
aI314
aI316
aI314
aI316
aI315
aI318
aI317
aI319
aI317
aI319
aI318
aI321
aI320
aI322
aI320
aI322
aI321
aI324
aI323
aI325
aI323
aI325
aI324
aI327
aI326
aI328
aI326
aI328
aI327
aI330
aI329
aI331
aI329
aI331
aI330
aI333
aI332
aI334
aI332
aI334
aI333
aI336
aI335
aI337
aI335
aI337
aI336
aI339
aI338
aI340
aI338
aI340
aI339
aI342
aI341
aI343
aI341
aI343
aI342
aI345
aI344
aI346
aI344
aI346
aI345
aI348
aI347
aI349
aI347
aI349
aI348
aI351
aI350
aI352
aI350
aI352
aI351
aI354
aI353
aI355
aI353
aI355
aI354
aI357
aI356
aI358
aI356
aI358
aI357
aI360
aI359
aI361
aI359
aI361
aI360
aI363
aI362
aI364
aI362
aI364
aI363
aI366
aI365
aI367
aI365
aI367
aI366
aI369
aI368
aI370
aI368
aI370
aI369
aI372
aI371
aI373
aI371
aI373
aI372
aI375
aI374
aI376
aI374
aI376
aI375
aI378
aI377
aI379
aI377
aI379
aI378
aI381
aI380
aI382
aI380
aI382
aI381
aI384
aI383
aI385
aI383
aI385
aI384
aI387
aI386
aI388
aI386
aI388
aI387
aI390
aI389
aI391
aI389
aI391
aI390
aI393
aI392
aI394
aI392
aI394
aI393
aI396
aI395
aI397
aI395
aI397
aI396
aI399
aI398
aI400
aI398
aI400
aI399
aI402
aI401
aI403
aI401
aI403
aI402
aI405
aI404
aI406
aI404
aI406
aI405
aI408
aI407
aI409
aI407
aI409
aI408
aI411
aI410
aI412
aI410
aI412
aI411
aI414
aI413
aI415
aI413
aI415
aI414
aI417
aI416
aI418
aI416
aI418
aI417
aI420
aI419
aI421
aI419
aI421
aI420
aI423
aI422
aI424
aI422
aI424
aI423
aI426
aI425
aI427
aI425
aI427
aI426
aI429
aI428
aI430
aI428
aI430
aI429
aI432
aI431
aI433
aI431
aI433
aI432
aI435
aI434
aI436
aI434
aI436
aI435
aI438
aI437
aI439
aI437
aI439
aI438
aI441
aI440
aI442
aI440
aI442
aI441
aI444
aI443
aI445
aI443
aI445
aI444
aI447
aI446
aI448
aI446
aI448
aI447
aI450
aI449
aI451
aI449
aI451
aI450
aI453
aI452
aI454
aI452
aI454
aI453
aI456
aI455
aI457
aI455
aI457
aI456
aI459
aI458
aI460
aI458
aI460
aI459
aI462
aI461
aI463
aI461
aI463
aI462
aI465
aI464
aI466
aI464
aI466
aI465
aI468
aI467
aI469
aI467
aI469
aI468
aI471
aI470
aI472
aI470
aI472
aI471
aI474
aI473
aI475
aI473
aI475
aI474
aI477
aI476
aI478
aI476
aI478
aI477
aI480
aI479
aI481
aI479
aI481
aI480
aI483
aI482
aI484
aI482
aI484
aI483
aI486
aI485
aI487
aI485
aI487
aI486
aI489
aI488
aI490
aI488
aI490
aI489
aI492
aI491
aI493
aI491
aI493
aI492
aI495
aI494
aI496
aI494
aI496
aI495
aI498
aI497
aI499
aI497
aI499
aI498
aI501
aI500
aI502
aI500
aI502
aI501
aI504
aI503
aI505
aI503
aI505
aI504
aI507
aI506
aI508
aI506
aI508
aI507
aI510
aI509
aI511
aI509
aI511
aI510
aI513
aI512
aI514
aI512
aI514
aI513
aI516
aI515
aI517
aI515
aI517
aI516
aI519
aI518
aI520
aI518
aI520
aI519
aI522
aI521
aI523
aI521
aI523
aI522
aI525
aI524
aI526
aI524
aI526
aI525
aI528
aI527
aI529
aI527
aI529
aI528
aI531
aI530
aI532
aI530
aI532
aI531
aI534
aI533
aI535
aI533
aI535
aI534
aI537
aI536
aI538
aI536
aI538
aI537
aI540
aI539
aI541
aI539
aI541
aI540
aI543
aI542
aI544
aI542
aI544
aI543
aI546
aI545
aI547
aI545
aI547
aI546
aI549
aI548
aI550
aI548
aI550
aI549
aI552
aI551
aI553
aI551
aI553
aI552
aI555
aI554
aI556
aI554
aI556
aI555
aI558
aI557
aI559
aI557
aI559
aI558
aI561
aI560
aI562
aI560
aI562
aI561
aI564
aI563
aI565
aI563
aI565
aI564
aI567
aI566
aI568
aI566
aI568
aI567
aI570
aI569
aI571
aI569
aI571
aI570
aI573
aI572
aI574
aI572
aI574
aI573
aI576
aI575
aI577
aI575
aI577
aI576
aI579
aI578
aI580
aI578
aI580
aI579
aI582
aI581
aI583
aI581
aI583
aI582
aI585
aI584
aI586
aI584
aI586
aI585
aI588
aI587
aI589
aI587
aI589
aI588
aI591
aI590
aI592
aI590
aI592
aI591
aI594
aI593
aI595
aI593
aI595
aI594
aI597
aI596
aI598
aI596
aI598
aI597
aI600
aI599
aI601
aI599
aI601
aI600
aI603
aI602
aI604
aI602
aI604
aI603
aI606
aI605
aI607
aI605
aI607
aI606
aI609
aI608
aI610
aI608
aI610
aI609
aI612
aI611
aI613
aI611
aI613
aI612
aI615
aI614
aI616
aI614
aI616
aI615
aI618
aI617
aI619
aI617
aI619
aI618
aI621
aI620
aI622
aI620
aI622
aI621
aI624
aI623
aI625
aI623
aI625
aI624
aI627
aI626
aI628
aI626
aI628
aI627
aI630
aI629
aI631
aI629
aI631
aI630
aI633
aI632
aI634
aI632
aI634
aI633
aI636
aI635
aI637
aI635
aI637
aI636
aI639
aI638
aI640
aI638
aI640
aI639
aI642
aI641
aI643
aI641
aI643
aI642
aI645
aI644
aI646
aI644
aI646
aI645
aI648
aI647
aI649
aI647
aI649
aI648
asS'shape'
p1650
(lp1651
I655
aI2
asg694
S'Exclusions'
p1652
sbsbsS'configuration'
p1653
g1
(cpMolecule.Configuration
Configuration
p1654
tRp1655
(dp1656
S'coordinates3'
p1657
g1
(cpCore.Coordinates3
Coordinates3
p1658
tRp1659
(dp1660
g1648
(lp1661
F1.6623151500790341
aF1.606624280285923
aF0.179539155927051
aF1.463391091355037
aF2.358938563497134
aF-0.59796227052636097
aF0.82073696965527099
aF0.90003973478678501
aF0.22994229368961999
aF1.7799119698748549
aF2.1067909281105162
aF1.152195489056969
aF2.585220569430974
aF1.060727894749276
aF-0.066018888512019994
aF-8.6687620996489585
aF-9.292998381057636
aF-4.9472561599909364
aF-9.5591489595700327
aF-8.9676100674807895
aF-4.9625429211728056
aF-8.5880563791498385
aF-9.8043352608798227
aF-5.741561631464239
aF-3.1697517889985618
aF-7.4366615573185593
aF2.186695368898679
aF-3.7169193239058762
aF-8.1938617424037776
aF2.0249685360900189
aF-2.5064901042723848
aF-7.7460751225224689
aF2.7893952803322231
aF-7.7712341241816523
aF-4.8858258315570566
aF2.1532484057159511
aF-8.1091485715601852
aF-4.8141325370091934
aF1.2703135849224181
aF-7.1093035727861142
aF-5.5625992788947896
aF2.1010406849483712
aF-6.2730172151022527
aF-8.3957373162916653
aF-1.5419918817118079
aF-5.7800198511790688
aF-9.1205129224712103
aF-1.180669422055773
aF-5.6244568927756902
aF-7.8616450616017417
aF-1.981326573927034
aF-6.5783043025195029
aF-0.49956260942169001
aF3.8832042810240339
aF-5.9195057134756821
aF0.18074417673134699
aF3.9286696061400548
aF-6.2593017680826266
aF-1.0964563135381991
aF3.219234937598495
aF-9.1764175070896457
aF-5.365997313553942
aF-8.823530709649841
aF-9.0304979552043179
aF-5.1103587825549877
aF-7.9222780115422697
aF-8.7100239000605999
aF-6.1861105117931832
aF-8.9172928843059349
aF-6.7526240904109134
aF-3.387843023149991
aF-3.6535244814040619
aF-7.1414902376559768
aF-2.5303537996254608
aF-3.5421900704340352
aF-6.516535685955942
aF-3.4253325789420082
aF-4.5709975319556166
aF-9.1776809438480225
aF-5.2827913900279198
aF-2.4064244997645292
aF-8.5489867542720379
aF-5.3718457534597892
aF-3.1104933432359889
aF-8.7080293553739274
aF-5.5599676725641736
aF-1.630859741770011
aF-5.7134479350790208
aF-2.3335670675493501
aF1.7350240249713931
aF-5.3457513626025204
aF-3.2074546227360838
aF1.730577511876503
aF-6.5002153379900252
aF-2.4032095595749818
aF1.2105748119668049
aF-7.0565354399477096
aF6.6026392743994249
aF1.66696720321915
aF-6.7370866743048623
aF5.8973025794805114
aF1.1198359274451071
aF-7.733730073371234
aF7.0179387810879756
aF1.149440635585611
aF9.1721489903845104
aF-1.5444980727313331
aF1.4595509577350969
aF9.6205735369383802
aF-2.2177796364574198
aF0.965074100850419
aF9.113214342654814
aF-1.8938137591342521
aF2.338985582098831
aF9.5895860737479719
aF0.72485047155332805
aF-8.7716143749384781
aF9.1605918959788397
aF0.51479580812821202
aF-7.9526265643982148
aF9.107993700038449
aF1.468483213571075
aF-9.1092223289085741
aF8.8546922021027719
aF-1.94888947552818
aF-4.9656077625339883
aF8.2449487227529001
aF-2.6545132967380032
aF-4.7947045374868482
aF8.5504432707363236
aF-1.2339605037116179
aF-4.4222762311283326
aF4.6155675619505043
aF-1.8495810390956351
aF1.628947442991024
aF4.9416449782728344
aF-1.918516172539823
aF0.74135436846777103
aF3.681274334487548
aF-1.721870636078348
aF1.530528856951751
aF9.1959057062952692
aF1.0535852642741279
aF-2.7733881386292079
aF9.4597915716326408
aF1.911370734641348
aF-3.079114056572029
aF8.4696230772144645
aF0.81374652235696099
aF-3.3336478289255709
aF9.2517412388846463
aF-2.2037384408413541
aF4.3072115452705226
aF9.5738135310806047
aF-3.0531065657667682
aF4.5787685870872794
aF9.0990295054857349
aF-1.7362861228897599
aF5.1178085209149913
aF6.7241382351241601
aF1.843096220334274
aF5.3030892405427696
aF6.1182331342267613
aF1.5751629785528849
aF4.6248630344322343
aF6.5478085561295467
aF1.2556311283152839
aF6.0260640741052436
aF-6.1390263962901193
aF1.3262995248057481
aF9.1541293315637215
aF-6.7432744513539573
aF0.94474953380349902
aF9.77718943485851
aF-6.676949921748716
aF1.8918347368754449
aF8.6158838441999883
aF-6.778323471149899
aF6.2633299403179947
aF-7.567913380011519
aF-6.670244166474669
aF5.5574609964154318
aF-6.9442404705991434
aF-5.8988501013629637
aF6.4554100230775218
aF-7.8654563746232986
aF-7.3062647744532283
aF-0.76637725845890703
aF-3.5101490854110349
aF-7.1426085126236787
aF0.164296755615503
aF-3.4329318108503681
aF-8.2477675891352593
aF-0.84990927251348503
aF-3.4360218126041882
aF9.5733800855334898
aF3.7739727591142751
aF-4.1514898272370324
aF9.9171135810384889
aF4.3441752288114488
aF-3.476496177178646
aF8.72450628355557
aF4.1394864511147844
aF-4.3629443359986162
aF-5.5588632932303188
aF1.024127709119167
aF1.1482096616992681
aF-5.17097023111595
aF0.15921363164567001
aF1.1672520079739821
aF-6.340253599624166
aF0.92349373955040903
aF0.62076109241265198
aF7.4338218800084013
aF7.6320331311727454
aF4.005536745144
aF6.8889621362641522
aF7.685590110774049
aF4.7795906900230714
aF7.6399374931840036
aF8.5334626135224934
aF3.79615374116357
aF8.0720562432456724
aF6.9412983302984976
aF-9.1408631492356989
aF8.7022268009973729
aF6.2459891699966246
aF-9.2762523649918638
aF7.2992429750636427
aF6.6576430121771812
aF-9.6111814595566489
aF0.75448972847670803
aF-2.7171237404327369
aF-6.6309011594296701
aF1.2809958573684761
aF-2.396694448875889
aF-7.3513290637696436
aF1.268537479696012
aF-2.527651252138003
aF-5.8571084962144351
aF-7.072963768206419
aF7.5624436326245608
aF-3.3049146845900159
aF-7.4730233075598793
aF8.1056891284265955
aF-3.9710503286318728
aF-7.804092816882207
aF7.1666014607614024
aF-2.849218196610241
aF-8.8724490651114252
aF5.7800371592993187
aF-2.1356179471749752
aF-9.729359154228419
aF5.9407321819343242
aF-2.5081527896660512
aF-9.0450581208098519
aF5.5424459088244662
aF-1.234143315480509
aF-8.9047272154069255
aF2.487234783092473
aF-6.8291947102556279
aF-8.6077539416427733
aF2.9638054008703381
aF-6.0652658386055016
aF-8.2139415484378926
aF1.8616518540254969
aF-7.0034392544170174
aF8.9656567915924921
aF-7.1198821972956052
aF3.963946379246694
aF8.6040799045550358
aF-7.4765099943827549
aF4.7645578762320122
aF8.5352613013939731
aF-6.2814387761580024
aF3.8606393051042018
aF5.3903981266034897
aF0.95870776581819805
aF-8.6145459505105002
aF5.7974466922523504
aF0.81437730081488902
aF-9.4585721243197476
aF5.885285133346593
aF0.415823884618993
aF-8.0151596459530658
aF7.3400602176642096
aF2.2925220562004589
aF-6.2937314193449163
aF8.2806938412780511
aF2.3607188146541431
aF-6.1964812868854313
aF7.1943944302768639
aF2.3215953966270488
aF-7.2301267521297374
aF-9.3714280539355599
aF7.7827681430684521
aF0.162186382842851
aF-9.4498505786396141
aF8.4580357184032948
aF0.82306731714218495
aF-9.1907422626649655
aF8.2542784915134479
aF-0.64026650433633203
aF6.3550247864643756
aF5.2175024481260008
aF2.8662988734537
aF7.0512506264700674
aF4.5739608361826969
aF2.8614230755067842
aF6.7638036372019226
aF6.0086174546135487
aF3.1917783623619131
aF-8.8807361279030204
aF5.9086918151667556
aF3.7637224534156308
aF-8.2746587811487604
aF6.1835915965295554
aF3.0884444662445132
aF-9.7015455134631523
aF6.3216413931815536
aF3.5299606118036091
aF8.5786739756034862
aF-8.7127116714871846
aF6.3890444630230618
aF7.8297874302598096
aF-9.2938867993548158
aF6.3715970290806352
aF9.3108875805267921
aF-9.2737594356278485
aF6.6081075660732091
aF6.2835611321346834
aF4.0535983406636227
aF6.5322743517561692
aF6.4224718651205528
aF3.1642646116643669
aF6.234466818732562
aF6.2040946662552736
aF4.5620650585576339
aF5.7360038715833994
aF-8.9204145124278735
aF-5.4898795604338311
aF-6.0664863196482273
aF-9.8317975440010219
aF-5.3129603798452072
aF-5.8741829829629637
aF-8.5811617364531791
aF-5.8826585639111757
aF-5.2730556620475024
aF-3.989312542797018
aF7.1347086561240634
aF-8.1794000587217539
aF-3.7117373006463059
aF7.1430907698891692
aF-9.085921831826905
aF-3.5897073121445251
aF7.9064879595820594
aF-7.8004906152014808
aF-4.3348929243269243
aF6.9794520781470606
aF-4.2211143019011823
aF-5.0694428024100064
aF6.7171843768428694
aF-3.6820854256239111
aF-4.4583156930395278
aF7.9097416152182332
aF-4.3561261435267564
aF-4.6501551903051777
aF-5.2662902320299017
aF1.606917909592718
aF-4.6163554419690573
aF-5.0038047738697822
aF2.517334825772759
aF-3.9795640343293219
aF-5.9315534199134348
aF1.5254784082806709
aF-6.6186055107683917
aF-5.8092110455803274
aF-0.29547923026600997
aF-6.535691462096243
aF-6.618192500423338
aF-0.78289513711849601
aF-5.8998865544604921
aF-5.8284335797594862
aF0.32256086230352798
aF-7.8138815388981584
aF-5.4667793876660777
aF7.1541772207305172
aF-7.4894999398800604
aF-6.2038659073799209
aF7.6545571170840381
aF-7.2478152216172091
aF-4.7460310732731674
aF7.3970574211169593
aF-1.352544037508109
aF-4.8828687985883006
aF-3.626547712310852
aF-1.755471156217
aF-4.3672487589018703
aF-4.3126130967186889
aF-1.891737185662276
aF-4.7262224802658022
aF-2.8625891532648908
aF-4.1454113343652983
aF-6.6780024421455808
aF-2.184424558154634
aF-4.1105276440561198
aF-5.7969499614611344
aF-2.5328921383255709
aF-3.4674453742960001
aF-6.6994743003779984
aF-1.5220039091019479
aF-0.67131878764195596
aF0.17567218053477901
aF3.531323694418671
aF-0.73660905474218297
aF-0.36977640186934302
aF4.3040610527593044
aF-0.75333291834124405
aF1.062113687240092
aF3.857506369549732
aF-4.1010121785673226
aF-4.1720506897129326
aF-2.9730021821133961
aF-4.1094397962178419
aF-3.4407762794156649
aF-2.369622772367701
aF-4.7689743182127868
aF-3.9616132119874412
aF-3.6120973612289569
aF-0.81487217287734104
aF-7.0673239211475973
aF4.5863205374953804
aF0.094914934526324005
aF-7.1155491578120413
aF4.8487357538046894
aF-0.78957205309911305
aF-7.0586132393916667
aF3.6385948240305228
aF-5.2149313033960674
aF-4.4838694152979324
aF-8.5972533523310037
aF-5.5866336527819858
aF-5.3519445370998069
aF-8.6820056170186142
aF-4.3550676776583694
aF-4.5531900177066849
aF-8.9906096783445264
aF-7.0163996568341638
aF0.62863682055530201
aF-6.6433485483843659
aF-6.3878861129452584
aF0.91307562009594201
aF-5.9929907280546546
aF-6.7574923750931069
aF-0.25900892920912699
aF-6.8529959723765614
aF-3.1393984563977142
aF-1.430214186587595
aF0.42844241060217197
aF-3.5725492126385849
aF-1.174522707229271
aF-0.375238054353562
aF-3.8049861062989589
aF-1.8911166452539241
aF0.92186110085845796
aF-1.6474459941416719
aF0.436588115097788
aF6.9230312956897064
aF-1.460303404860168
aF1.348467141784883
aF7.1029042841153904
aF-2.589701490025075
aF0.401570752317437
aF6.8238931860579406
aF-7.1665586055137496
aF-0.74253904917272096
aF6.4017238571409276
aF-7.7997807246989401
aF-0.042702253781083999
aF6.4920466537679404
aF-6.9477237979792896
aF-0.74855145194598505
aF5.4792406984739452
aF8.4787643980425926
aF-1.5146944990091
aF7.0132214677429028
aF9.1907817761464408
aF-1.882660966128715
aF7.5197112824022083
aF8.6859366135469021
aF-0.59195165231955404
aF6.9459510284232442
aF-6.0831844711868843
aF6.1263316640240104
aF7.4728365132161638
aF-5.3372727722361422
aF6.6493520819844854
aF7.7354491171878106
aF-5.7254547820170387
aF5.4849168542047044
aF6.8732395558932096
aF-8.6171296306138139
aF4.6647275005371034
aF-8.9005216505463256
aF-7.9811058439423714
aF5.2981045675380738
aF-8.5952230528007476
aF-8.5666744301259818
aF3.9550316635411642
aF-8.2738749464982622
aF-4.1947599430071669
aF3.4703464754483559
aF-3.056647530170082
aF-3.661805335724575
aF2.7514500974138461
aF-3.3697727195513161
aF-3.574958754686417
aF4.0786596753272448
aF-2.6762509768086291
aF-4.5919762678668636
aF3.330908984639029
aF1.8199746270372701
aF-3.659597128376253
aF3.1609168865276258
aF1.794055004694417
aF-4.9927011876236236
aF2.47559736712835
aF1.737745826503966
aF-4.8486510595118606
aF1.5266958350597211
aF4.6662181598339032
aF-4.4432202245134702
aF2.083323807941897
aF4.0145348488326302
aF-5.0364867357732042
aF2.1070632318505682
aF5.3920221578014136
aF-4.2949048764628168
aF0.28620946568671501
aF7.1918041021478567
aF-4.8187165882555778
aF0.725251713628427
aF7.8488910028778749
aF-4.9008225843910704
aF0.10575151180313901
aF6.4852641824695159
aF-3.6602014492768911
aF1.995812400890326
aF-8.4600305408800214
aF-3.493502295828236
aF1.2049316154473451
aF-7.9644309288377091
aF-4.4808870924191071
aF1.829967645858481
aF-8.9048570153266802
aF-6.2945353060364733
aF4.2282942820276546
aF-5.9594432663058612
aF-5.35688011903828
aF4.1306186839727053
aF-6.0602511421883287
aF-6.540168572868498
aF3.5500749883664509
aF-5.3441523693058306
aF-5.5277828510009908
aF7.6745702452556239
aF-0.977376489660155
aF-5.7366012941616766
aF6.766547098870479
aF-0.80190904702552901
aF-5.9766518113825802
aF7.8698969667086889
aF-1.789327306084588
aF-1.901305797442232
aF5.1249201432357232
aF6.2705755376362013
aF-1.0378876694569541
aF5.2459056561471469
aF6.6430961973746792
aF-2.27471671219085
aF5.9960513524595687
aF6.246188962175018
aF-4.6505657559596463
aF4.0050765978549991
aF6.0740248366772498
aF-4.8541143269184683
aF4.4522958654748548
aF5.2631839731718966
aF-3.782651103037908
aF4.3101573714240962
aF6.3032624357795877
aF-0.033034381980546999
aF5.5447775584630694
aF1.4492917548197619
aF-0.35886464522478301
aF4.8879949276050754
aF2.050433348254594
aF-0.71827006808773497
aF6.1992201121729016
aF1.4167802433370811
aF-4.9440146024682896
aF-4.0122090714300764
aF-5.7054750079047114
aF-4.0553873332320842
aF-3.6908136554014419
aF-5.628361047265181
aF-5.0743657769737576
aF-4.131807407215927
aF-6.6369280713395664
aF-2.969005390167883
aF8.0294829976106623
aF-1.7042807957200119
aF-3.042072916669154
aF7.6935158996568944
aF-2.587845872929099
aF-3.8545391464391332
aF8.0063372990839881
aF-1.366354408552992
aF-7.5680227990909819
aF2.956849516252543
aF-0.49538479858229001
aF-8.1323164649151405
aF3.6680231872731821
aF-0.22206325102760499
aF-8.0160277167771188
aF2.172613530994191
aF-0.207000483553097
aF-5.5440145696901704
aF5.093940110452011
aF3.738652350584847
aF-5.8240354377547607
aF5.8314488527778403
aF3.212753911300867
aF-5.3595841317583917
aF4.4088940323606964
aF3.1096871015798389
aF2.696252467073013
aF7.3024852710144197
aF5.2893347662024333
aF2.956638240398183
aF7.8290247965171371
aF6.0335493704216132
aF3.354105780202091
aF7.4796742286903397
aF4.6299918420098809
aF-8.8368557635062484
aF8.2207462225170591
aF-7.5679262827678899
aF-9.5875498146607878
aF7.7746630684914653
aF-7.9372070177861422
aF-8.1578939920529532
aF7.5597041107473641
aF-7.537360953195364
aF-9.402598740544164
aF-2.4805303673750969
aF-8.9139310062456989
aF-8.8466334947513428
aF-1.716224388217501
aF-8.8388376264159287
aF-8.80951450801345
aF-3.215752456470184
aF-8.8326932512910332
aF-1.1935500243093811
aF-7.7073475032328371
aF-3.681674118894251
aF-1.2785537917022689
aF-6.7803989459937002
aF-3.86178722713835
aF-0.92225122167599605
aF-7.7500621206592308
aF-2.7742203067650539
aF0.17591139968125699
aF-7.7615921733858952
aF-1.009380825441784
aF-0.070091020720700004
aF-8.4892270322946679
aF-0.45356581911583399
aF1.092192060357402
aF-7.9088484066026616
aF-1.2034049287115089
aF-2.210400146396859
aF7.5232388080988137
aF2.7564449612756352
aF-3.0087755066577322
aF7.9517878288643233
aF3.0354476869420952
aF-1.614159940929121
aF7.6317327507616151
aF3.485572303918294
aF-4.3251591066235431
aF-7.9078150541898511
aF8.1244224962528175
aF-5.1009452766307346
aF-8.3326475542474654
aF7.7829943701116191
aF-4.114179380997272
aF-7.2439621638801643
aF7.4812375342067856
aF-5.4019883732277183
aF-7.1634185447785006
aF-8.3144859207305721
aF-6.3000218089058597
aF-7.4584502705317606
aF-8.2410541210581236
aF-5.0980994338100682
aF-7.5264996825096357
aF-9.135901528035177
aF1.498658947611025
aF-5.651811907742359
aF-7.190777799377309
aF1.0045298556083511
aF-5.1080983188104732
aF-6.5915182782619528
aF1.0969894062909871
aF-6.5079102517550176
aF-7.1225340820509171
aF0.988834987234254
aF-5.3095228469183642
aF-2.3152507976084951
aF0.171734545593904
aF-5.2718511797502172
aF-2.794654295472085
aF0.95830530680997605
aF-6.1388295567285649
aF-1.8567550836951421
aF-7.3371004418167987
aF-3.348347141831332
aF-0.99559993807690605
aF-7.1197116015961974
aF-4.193411902555261
aF-0.62477970894955603
aF-7.2717064430645442
aF-3.4752615806864018
aF-1.9328919684159951
aF-2.158928695428695
aF-6.7140683758758666
aF-0.23840315060255901
aF-2.5580346967254441
aF-6.9999278443574022
aF0.57270643755943396
aF-1.2640654051588469
aF-7.0228365461200006
aF-0.18565934744545901
aF-3.6958091307784162
aF-2.49420949252641
aF8.1347133508408085
aF-2.875210619009811
aF-2.5920035261577081
aF8.5994223021955722
aF-3.6800304036506462
aF-1.604483806587389
aF7.8075448383728094
aF0.28034763477181501
aF-6.5416687240941798
aF7.4638237462761268
aF-0.43320838892214097
aF-7.0694398617470577
aF7.7972835299242753
aF0.76129567657767405
aF-7.1249939284646739
aF6.8917042770836217
aF-2.4082828887662919
aF-5.395257038635437
aF-9.1305571485690926
aF-2.1125977222944372
aF-5.9340978526126298
aF-9.8524441615571625
aF-1.8117553219360061
aF-4.6583727402063397
aF-9.1230476385858683
aF-2.3814066569181138
aF-7.4171040733676818
aF-7.4244003081560219
aF-2.681829865970387
aF-6.7233220557604856
aF-7.9965125414700546
aF-3.0625282735958752
aF-7.4982044765026954
aF-6.7698805850724284
aF2.4453222572921018
aF-0.68968008944486803
aF-2.6741165320548168
aF2.6794277892611529
aF-1.293352712718695
aF-1.9815315453483799
aF1.590114830978764
aF-0.36335585994015102
aF-2.4270684492519061
aF2.1939956407786232
aF-0.36491535616639298
aF2.9536405010610269
aF1.2810832360417801
aF-0.61932583583431999
aF2.981321706105645
aF2.5038014928751271
aF-0.67918690451305297
aF2.114501818895492
aF-3.4986604042221008
aF-6.8029965737509359
aF5.8470107484277394
aF-2.661858575172058
aF-6.8974648805220324
aF5.4114209896933723
aF-4.04734362020828
aF-6.3571192036698418
aF5.2153145403146084
aF0.110494959901319
aF-1.471154460294078
aF6.0565593869413696
aF-0.45946487662141999
aF-0.90616765194658599
aF6.5613719176339549
aF-0.39243052818215801
aF-2.264680389838662
aF5.9289562812727636
aF-3.8530325696658738
aF-0.50508340308716504
aF-7.3627643600158219
aF-3.2347738819916372
aF-1.1972957128613759
aF-7.5564091722683724
aF-4.6534888010886091
aF-0.77253099293487903
aF-7.7947847394669889
aF-6.4791363130243678
aF1.768657017803458
aF-2.973822921672598
aF-6.9756684244602036
aF2.2916911368526081
aF-2.3583627908570279
aF-5.5762833410147641
aF1.878327544684381
aF-2.7060004310803709
aF3.2785015174232961
aF4.8779227764643034
aF0.028947013240903
aF2.6377163737853029
aF5.563942339905644
aF-0.103987400168537
aF3.8660004342066991
aF4.9536528235924839
aF-0.71132995029386403
aF-1.9131273083707681
aF2.6259712697734678
aF2.139535869543244
aF-1.785151591785292
aF1.6866697717180259
aF2.124209039630554
aF-1.449850300145284
aF2.917167708181521
aF2.9137961926310401
aF-3.542242874900134
aF7.5564661822106363
aF7.8894034422494386
aF-3.8837306088176731
aF7.1751876732010524
aF7.0913352583508029
aF-2.6006235221147258
aF7.4877247339575863
aF7.8026416548539643
aF-1.9737868126215781
aF3.9990309214127739
aF-8.0463598777484382
aF-2.3488162145460398
aF3.2323651062206742
aF-8.4592478474302428
aF-2.6781146137054148
aF4.3557772426880836
aF-7.5214271097896583
aF0.73781949862933904
aF6.7405845800374209
aF-4.0007043452092441
aF0.27816348208043001
aF7.4884024101952296
aF-4.3590126473018724
aF1.580163727992931
aF7.0840281124018754
aF-3.7334914350892978
aF-3.4545233528798578
aF4.7934247550102427
aF-5.972594317200957
aF-2.800952134123786
aF4.4361091181323689
aF-5.3860193453036747
aF-3.7394570265926208
aF5.594306831550016
aF-5.552712546863285
aF-1.0386266269937201
aF8.9414059202409106
aF0.160865985090962
aF-1.5501931683243531
aF8.9443842273226224
aF0.95910830636808797
aF-1.6220683330449399
aF8.5830793591358585
aF-0.49495247397116798
aF-5.9393742994858432
aF4.9614556325865991
aF-0.125962033108699
aF-6.391766571131301
aF4.2328753942780724
aF-0.53020461980851297
aF-5.3043010418677783
aF4.5575480663853556
aF0.45061461871111103
aF-0.21615559966942099
aF7.7044529079756678
aF4.691002740977396
aF0.68415410537638999
aF7.4514793396414358
aF4.8470373804794393
aF-0.51904215174260004
aF8.0354461912141755
aF5.5262291671781707
aF-0.18846953028384
aF1.8783955329466531
aF-7.7000342885087099
aF-0.76214516332303694
aF2.5762935627199499
aF-7.9876705311756018
aF0.679601634979492
aF2.1637998168817392
aF-7.9528125445944484
aF-1.10740174321706
aF5.0471495270180924
aF-2.0966489403894122
aF-1.2265520911483281
aF5.1447661224823156
aF-1.161141487250817
aF-0.81982606621387299
aF5.9013457492957153
aF-2.3908411290055658
aF3.4513299951964398
aF7.8214899992419848
aF-4.1772542548195641
aF3.7741504215042139
aF8.6462829718973229
aF-4.5154901556590072
aF3.5926728557544729
aF7.2030832245617544
aF-4.881878450259121
aF-4.2031722596645551
aF6.9707053780491286
aF5.2906560873317918
aF-4.3662820092049577
aF6.3933294220967483
aF4.5565360596163789
aF-4.4863744346158496
aF7.824214812264751
aF4.9902926844217674
aF-6.9456123149879634
aF-8.524300646294293
aF7.4344498217315182
aF-7.2906321442109601
aF-9.2747521873270369
aF7.8999428957986408
aF-7.613224185141652
aF-8.312436116737187
aF6.7954601411064104
aF-7.9501925815569532
aF-7.8267459511981583
aF-7.7811921225346703
aF-8.6132945236700351
aF-8.4888532522935023
aF-7.9254479238117046
aF-8.0410668105826026
aF-7.593485954210303
aF-6.8667350987746403
aF0.18300398356781
aF-9.0627064987315844
aF-7.5329453670293756
aF-0.62197074779335004
aF-8.6984498439255216
aF-7.1890954414811494
aF0.23089825552357299
aF-9.9319880413642245
aF-7.1575046415453736
aF-1.6076020054838429
aF-8.2960179112185095
aF8.5156148904309621
aF-2.545517771485287
aF-8.2625520867812803
aF8.3811007481239681
aF-1.502321569535348
aF-8.7206221066436029
aF9.3567613146841317
aF2.7197249859142638
aF-8.1722692527357346
aF-2.4488786757352359
aF2.7411151400025502
aF-8.3826984934861937
aF-3.373087524397294
aF3.0788334714537231
aF-8.9385867256313656
aF-2.0214460771324139
aF-1.476487488358847
aF8.5882295919691121
aF-4.6151842502489284
aF-2.364787308150881
aF8.6189269087601232
aF-4.9451556200662452
aF-1.369407516300007
aF9.4030557264120933
aF-4.1424345805372091
aF6.4833096697191284
aF8.2024305873039367
aF6.9577556585573257
aF5.7206943647515827
aF8.7289025196367565
aF7.1581183324639994
aF6.3393580166858117
aF7.3880188186799609
aF7.4213410257936587
aF-1.2010007182382569
aF6.7233541969208126
aF-8.7696888674292754
aF-1.8334706467663751
aF6.0170640022446724
aF-8.7756847336679975
aF-0.58080384353264003
aF6.4823688954729706
aF-8.0942764592730558
aF-0.56540837374477504
aF7.4864191389152941
aF7.5732825355512219
aF0.28941273628535802
aF7.8923730882270737
aF7.5151253271843217
aF-0.64757227474964996
aF7.2328191025327344
aF8.4831375321954123
aF-4.5723285687237247
aF-1.4443049434284201
aF-2.0327820124817091
aF-5.5117725948412453
aF-1.3576859191635799
aF-2.1268142751766228
aF-4.2323569250915387
aF-1.31838073876999
aF-2.9088313125825249
aF-5.9128871050311984
aF-2.05459160093621
aF-8.1298819817976398
aF-6.402885154991643
aF-2.3081418542483401
aF-7.3588345253591694
aF-5.6849410188380416
aF-2.8744843543768952
aF-8.5478729561555404
aF1.766271974378204
aF-5.265577675542537
aF1.131234235213793
aF2.5880988087548822
aF-5.6530868575742312
aF0.860425653112877
aF1.435443188639272
aF-4.8390282862490492
aF0.35180628278984499
aF-0.76494016871044201
aF-1.222327220004364
aF1.3322231828840621
aF-0.90299686925852896
aF-0.54513731023307999
aF1.98126414733676
aF-1.616637719257038
aF-1.349744170829432
aF0.93564254412912895
aF-1.2448888859199341
aF-3.8971414994685669
aF6.5770308161723783
aF-1.992177042237216
aF-4.4726372338802687
aF6.4807755768249358
aF-0.52682690960729195
aF-4.4741881702460784
aF6.8013166559359934
aF-6.9658046857147244
aF-7.7006349243180692
aF4.2605042570919309
aF-6.6661543252940856
aF-6.8025566069441563
aF4.3111500601017623
aF-7.8787738599399431
aF-7.6338559667715922
aF4.0136685673234256
aF-2.0060685301067172
aF-2.7998433843064392
aF-5.4282062724354709
aF-1.06282207881362
aF-2.722433046098824
aF-5.4847197368624503
aF-2.3068894162117748
aF-1.9199912833013979
aF-5.2430925915797761
aF4.8528304731711724
aF-1.7563188410431749
aF-6.2684472053401246
aF3.9862136787743161
aF-2.0592500810362591
aF-6.0315759417693977
aF4.8092435921667569
aF-1.6178641237296429
aF-7.2053732830313972
aF2.1304179494827169
aF-1.7853729804592571
aF0.69543028032001797
aF1.2422839222553581
aF-1.6723107339492249
aF1.007415661539987
aF2.0576301589113042
aF-2.4175452663060928
aF-0.0073926977839190002
aF4.9706945687687867
aF0.861267716265947
aF3.7018551553998411
aF4.2852270657155236
aF0.30434128649615599
aF3.3570838484705741
aF4.9150700396508844
aF1.654932172819634
aF3.1861976700825578
aF6.6200275314599546
aF-7.8752335422426416
aF0.76255554754058097
aF5.8760533424962391
aF-8.3340784563941632
aF0.39531754445128597
aF6.2492553503115804
aF-7.0966658181876721
aF1.1565863696171219
aF-1.262468697854938
aF-2.7210653265307312
aF-8.4938252427623997
aF-0.67486987574037105
aF-2.843805699767473
aF-7.759957117669579
aF-0.85718107411517497
aF-2.038530042184735
aF-9.0122724702272023
aF0.337594871619111
aF1.3979415018154759
aF-5.1625946098356188
aF1.2472160259443059
aF1.168221370394996
aF-5.2994084133213644
aF0.0012808611056680001
aF1.568552365496966
aF-6.0324709341060334
aF-3.2840171914019929
aF-0.25456878444866199
aF-4.6710995160686402
aF-3.522528558693359
aF-0.035261634891209002
aF-5.5621195505380072
aF-2.5490268763142341
aF0.31126191871456099
aF-4.4748220286051614
aF-1.76115458360747
aF2.5686540280943202
aF-3.767610818143535
aF-0.940160264724901
aF2.2991013081378089
aF-4.1577513819490903
aF-1.5096824160723199
aF3.1364868482878738
aF-3.0512117413251878
aF4.906926594160625
aF5.9012444111608584
aF-2.3413978361019931
aF5.6764524510888901
aF6.4518361961314543
aF-2.4012195866759529
aF4.233012194331204
aF6.3822986967831419
aF-2.8032702816829649
aF5.3933498862889087
aF-3.3829985373075688
aF3.7030560840460551
aF4.5984622423249766
aF-3.2001167371896448
aF4.1863860755209306
aF5.2975856752176353
aF-2.8977839571651129
aF2.8941704140685141
aF-0.94020934426139302
aF2.8158789163950968
aF7.8995518529341906
aF-0.097850317789955996
aF3.0889965075575638
aF7.5608217953371692
aF-1.5495013149869701
aF3.4664441864014468
aF7.5763984468392156
aF0.79117289013735403
aF6.2762114253962231
aF-6.7960681700981622
aF0.725077956658851
aF6.3218632784591078
aF-5.8513738448900794
aF1.4932382712767689
aF5.6595506718637711
aF-6.9564854873004549
aF4.7393063781349083
aF7.2895167315748077
aF-8.1408075605487298
aF4.5920239026516132
aF6.7319363890604764
aF-7.3882704956428693
aF3.937586868785528
aF7.787900240025432
aF-8.2288967587108921
aF1.4692280033499669
aF7.2113827753879587
aF0.091793883768550993
aF1.1018861467672969
aF6.550439619148996
aF0.66373278314783501
aF0.72042324432405203
aF7.7084773203600232
aF-0.21001474138845799
aF6.0939276622576859
aF-5.4761393028210774
aF1.931166304441944
aF5.9717595786648099
aF-5.0199192938642394
aF2.753260132893792
aF6.1495777264618816
aF-4.787269753461616
aF1.282119453806863
aF2.311200169625498
aF3.4751616345696812
aF-6.2108473119718131
aF2.5395731978572371
aF2.565255612686272
aF-6.3480216219446381
aF1.5176597024455489
aF3.4463839267549479
aF-5.6928073806143953
aF2.1665091131651941
aF6.5850484036122001
aF8.9495020444005018
aF2.794347508014388
aF5.8772085497960802
aF8.888825102299581
aF1.6305936329335191
aF6.3647956810989941
aF9.699957463645049
aF4.9023225976970766
aF-8.6636213865247154
aF-4.8866032252884004
aF5.1934499523639026
aF-7.901117993028727
aF-4.4041786837569239
aF4.4832137262214191
aF-8.3106105333659652
aF-5.6603157632522354
aF4.9358066779247984
aF8.9289107868572994
aF-0.65974741718771002
aF5.580092066610491
aF8.5903168832803374
aF-1.2673249895079639
aF4.979115790982048
aF8.3433319884333805
aF0.084646155838368001
aF-4.8499779716457621
aF9.0975382453029692
aF1.821054417210163
aF-5.3867228209045539
aF9.1629718084805738
aF2.5998505494578898
aF-5.361003873467725
aF8.5683070722561006
aF1.2230018332825501
aF4.4880448755040154
aF3.132230208549978
aF2.023004260499591
aF4.9667882337434692
aF3.8468987540666069
aF2.4216941989112981
aF3.777171545268506
aF3.5520960589732211
aF1.5568800538677461
aF5.7347366214439646
aF-8.2269717991441009
aF3.6356056907013459
aF5.9902015543868936
aF-7.6776338216658342
aF2.9063146277254388
aF5.5054295344095374
aF-7.6173072240178392
aF4.3245377379105632
aF5.5054063962547559
aF-7.5030707040547764
aF7.9316737025177924
aF6.3684122936799152
aF-7.2304664425159411
aF8.2141763354260053
aF5.2978909692313678
aF-6.926113237904759
aF7.2085157461894616
aF7.8154704966744006
aF-8.2039533641318769
aF-5.5070575025327031
aF7.5311966385935802
aF-7.3011727101927466
aF-5.5625143730277324
aF7.6687389622370086
aF-8.553976539630014
aF-6.375880633794619
aF0.33514363768331001
aF-7.5982174134521427
aF2.0289710949809692
aF0.93193324080747597
aF-8.3315457152474206
aF1.9584603058147509
aF0.87080288462620503
aF-6.8367398335671501
aF1.8497475850915881
aF9.2754662938873302
aF-7.2109126442094222
aF-0.12603637738462201
aF9.932115821089667
aF-7.8438707073895912
aF0.13295298278327899
aF8.605112214229905
aF-7.2761095494842811
aF0.54125274393323897
aF2.2996304758576298
aF-5.3896187199329688
aF3.7942383410618401
aF2.0412208714972562
aF-5.4810100664227299
aF2.886619424246482
aF2.6023381449345369
aF-4.4940882649069476
aF3.866993211708722
aF3.5593336710898291
aF-7.3232731418857284
aF0.53185998218180197
aF3.9710624753774821
aF-7.7821153327612969
aF-0.18844775454766999
aF3.1649645959933399
aF-8.0076397208449404
aF1.056279106748373
aF7.9092218668351473
aF-6.2658653138224896
aF7.9570364526450676
aF8.6229390878741317
aF-5.9148917090850697
aF8.4731035579422791
aF8.3305025460526139
aF-6.818993694226382
aF7.312465599976588
aF6.3776179906689494
aF-3.2161345514846
aF-4.242256011160209
aF6.2104379426395768
aF-2.7612567826792849
aF-3.427371327915036
aF5.9285192002987817
aF-2.7010016490410038
aF-4.8994077206672868
aF3.0709252884130001
aF-5.2877397245241946
aF-4.2810529064407392
aF3.820179175413291
aF-5.8596662062166738
aF-4.1789808125378416
aF2.475840720009737
aF-5.5487883847055723
aF-3.5906704374673728
aF7.2771966524231191
aF0.66734756504585502
aF1.0073261312678721
aF7.289887180781454
aF1.137207302734853
aF1.8307159401608319
aF7.5831596596536848
aF-0.203273260669393
aF1.224825593421913
aF2.1723497016394901
aF0.403026456541068
aF5.717769547457503
aF1.4595068891564891
aF-0.188936059735729
aF5.918606556035348
aF2.2660286348508998
aF0.35253459456546199
aF4.7756576489303058
aF-6.341524616192471
aF-3.20948524584839
aF7.2145018483475392
aF-5.5084744577357672
aF-3.0177633889952729
aF7.6245874041771504
aF-6.6118875572956819
aF-2.387090631333157
aF6.8278870813063213
aF1.683867011219248
aF-4.8292587497665096
aF8.7357192409697113
aF1.261122926100315
aF-5.5263102103710722
aF8.2516668680120411
aF1.6619048524683979
aF-5.1184109774533431
aF9.6383867616032912
aF6.3611088994665774
aF-6.1402657107125576
aF-8.3497855991446901
aF6.6298314452001099
aF-6.7626967149450294
aF-9.012558439856015
aF6.3336472145503731
aF-5.3073882104904184
aF-8.8019591559624164
aF7.0724498878037707
aF0.21514815223543701
aF-4.5178326145441794
aF6.2204286555764092
aF0.40890238331164203
aF-4.149839248063472
aF7.0875737359338178
aF0.68186856696577502
aF-5.3429649213238974
aF-8.6158068587590009
aF1.180960699556137
aF2.9721421008897031
aF-7.7464817623235769
aF0.97518864802374206
aF3.2896822393220808
aF-9.1707812918444969
aF0.50774077399696504
aF3.3431923811098279
aF2.7347963382806331
aF-3.2579297794285829
aF-1.4725623280736291
aF3.598711423677182
aF-3.4806254034867701
aF-1.1516925971086041
aF2.4293894817965702
aF-4.0461199600970961
aF-1.9019606176722419
aF2.978014117650468
aF-2.5706325734908639
aF5.0680691032744516
aF2.7492997437364162
aF-1.956014208851087
aF4.3833545634750806
aF2.1971090062479108
aF-2.6343261357349022
aF5.6019514284304917
aF2.370987022733881
aF-1.1563211391272821
aF-8.4091993609955118
aF2.859649662488863
aF-1.6522651272550499
aF-9.0527429765706966
aF1.532754315358708
aF-0.99232135565979696
aF-8.8207452263726793
aF5.4209517598795927
aF3.523402489648527
aF-4.883057047035841
aF5.0951037924002023
aF2.8140396501493821
aF-4.3449794838284834
aF6.0659632339649781
aF3.1178440533179699
aF-5.4473110262147992
aF2.78705520188351
aF-2.7291964926931769
aF-4.9392547418122836
aF3.0023672723736472
aF-3.635183224441934
aF-4.7611290721392354
aF3.1119176380940048
aF-2.2542769264798039
aF-4.1857192063747943
aF2.952389975866256
aF0.82826694867049599
aF-6.209487670865248
aF2.7263594002746858
aF0.00031327175106999998
aF-6.612355996467107
aF3.860609393019002
aF0.96723532931205802
aF-6.443422019537139
aF2.2943786634939292
aF9.3603958321241105
aF1.9686400273926521
aF2.6230450738976221
aF8.9711682364455214
aF2.76825260197776
aF2.207010767017985
aF8.6324851048795441
aF1.367463827075635
aF4.12280840302064
aF1.5749776281400669
aF7.1424508444367829
aF4.521346683840191
aF0.716945214832856
aF7.2044800023836828
aF3.364615636868026
aF1.446236609934529
aF6.5879515391304313
aF3.7203125174755138
aF4.4332149596141051
aF8.1849049645520839
aF3.486180883849654
aF3.6416324686835901
aF8.6512519793253588
aF4.1324112795186476
aF4.1273109297261774
aF7.387724097483094
aF6.7273089082343951
aF9.1288690073369505
aF-7.8743248197345022
aF5.8055472054855954
aF8.9076890825009691
aF-7.856027164282076
aF7.098559870007203
aF8.5499447379705966
aF-8.5269498374294628
aF5.1178545231144357
aF1.8401375227112731
aF-0.45053390675910499
aF4.8515884637711482
aF2.4331947966765322
aF0.239600468155407
aF5.8323840141746306
aF1.342771209256346
aF-0.075068386843491
aF5.1757913640180462
aF-0.86065933265979699
aF6.9672410968325549
aF4.602332418071259
aF-1.060489929080966
aF6.239152798583298
aF5.0190668152980944
aF-1.5562517412056791
aF7.5921319809089836
aF-0.076353968844923001
aF-0.343866443138372
aF9.3867255282740398
aF-0.81312002436589403
aF-0.24206078746795501
aF8.7987532603008418
aF0.026196909716017999
aF0.50792645452248997
aF9.790250219960658
aF2.047546115205519
aF2.9841308558300881
aF4.4084532750305616
aF2.5666088162133498
aF2.8582823747910182
aF3.625104009222162
aF2.4452457740142028
aF2.413056720378707
aF5.0523549082028598
aF0.83229595191387995
aF4.4002682968277096
aF6.4069959687692606
aF1.3080623785102961
aF5.1888078577548313
aF6.632277277750978
aF1.462017870000647
aF3.8669652263888632
aF5.9401575160454438
aF3.868704656178124
aF-7.007455117024322
aF-7.1004037186624496
aF4.5867782602904681
aF-6.4513713912948631
aF-7.3725088252959354
aF3.1550121868381482
aF-6.4077857814778323
aF-6.9273726601423418
aF6.0944525484926464
aF5.9694168160199794
aF8.246282069365348
aF5.3414660891131636
aF6.02904769176609
aF8.819305237002526
aF5.8990435974470454
aF5.2418493415346878
aF7.6706425016475386
aF5.624416004216549
aF-6.1413235972468989
aF-3.796651309503114
aF6.0041230899478881
aF-6.5515307545119672
aF-3.03084936567307
aF5.9345401167984626
aF-5.2458990607890099
aF-3.7660255963780549
aF4.4397654237677218
aF8.1645727883902453
aF3.3224505886036471
aF5.0975584711224569
aF7.6901475669115076
aF2.8314016948296929
aF4.8384082700039386
aF9.0052773199588714
aF3.504658633828357
aF1.7945235866000711
aF-7.688448766922364
aF5.3223188140951434
aF2.154114559111568
aF-6.950332629114393
aF4.8482102826430804
aF2.5120091832895248
aF-8.3052239863288246
aF5.3831690176217766
aF-4.8590888810960751
aF-9.3939424252416224
aF4.8360442035289104
aF-4.3699400374676944
aF-8.7705802534193911
aF5.3566717205870082
aF-5.7413637998703848
aF-9.0474160638566818
aF4.8157846732502074
aF6.7512093029563198
aF-3.781817516913955
aF9.2900292799532185
aF7.5825153233189564
aF-3.3581675454781812
aF9.4584068384678694
aF6.7784493149306071
aF-4.0026716373469258
aF8.368410356951232
aF7.2243028233883226
aF-5.4314669086738272
aF-5.9127134117206657
aF6.9604513651109698
aF-5.6546442854162384
aF-6.795591810185134
aF6.6221902631603982
aF-4.748062220990886
aF-5.6494293490265024
aF-9.518658239488758
aF-9.4223917533609054
aF-2.1848156656412132
aF-8.617661555150935
aF-9.1825001238977269
aF-2.3567371038788298
aF-9.9438350300056211
aF-8.6057654693348589
aF-1.9584394101646729
aF5.8389216932161938
aF-6.0545050749756486
aF5.4181030531981671
aF6.4924727627213752
aF-5.5799489069110413
aF5.914658632061716
aF5.237414400760307
aF-5.3867001042274314
aF5.1162330511006404
aF2.800361200134748
aF-9.5573730711964675
aF-8.100114312762237
aF1.9005496740471191
aF-9.3807216046653306
aF-7.8592129285980397
aF3.285441168685507
aF-8.810751813572864
aF-7.7743012961787068
aF-5.7899856227974853
aF-4.8795121037704137
aF4.293141382990413
aF-6.3415215133998437
aF-4.4170033049618764
aF3.6760564841295311
aF-6.1074295105493794
aF-4.610343790482248
aF5.1450086245548237
aF6.6549354214032572
aF-3.437699864947322
aF6.256838573926176
aF6.7473770926779224
aF-2.5185328915933112
aF6.47011448092716
aF6.6079325040326449
aF-3.459293901747833
aF5.3101472708429567
aF4.0782550200831782
aF-2.8424164379350172
aF8.7458558817856886
aF4.8091796131185456
aF-3.4100591683696289
aF8.9518436723965245
aF3.340805383553842
aF-3.429881470567798
aF8.6460918150260007
aF6.7575586762303734
aF-1.1136802221288029
aF-1.41170582061237
aF6.9571064960495761
aF-0.40428447950572799
aF-2.0082276961153709
aF7.0666933087259611
aF-0.81019924285326905
aF-0.56835828002797595
aF-5.0269456873160223
aF-6.7327658031884683
aF-5.3832853316468601
aF-5.3650275898046944
aF-6.7896277250265786
aF-6.2672351882871693
aF-4.8767130824480356
aF-5.8069836752694091
aF-5.2445135187299821
aF8.9193907901389462
aF-4.745009705399962
aF5.4299467848815182
aF8.2147221013294391
aF-4.5513425481347118
aF6.0339625720992522
aF9.639437500845645
aF-5.0178204712660097
aF5.9831257978854806
aF7.305030436057085
aF-0.85618827120607899
aF-7.628832896642094
aF7.4580395425528723
aF-1.60213160859159
aF-8.1936839838672793
aF7.6054251307137042
aF-1.1380865535697651
aF-6.7749029312336111
aF-7.7728461670597886
aF-2.961244413526277
aF-6.3098441778731793
aF-8.3663091448665217
aF-2.6215757137392561
aF-5.6530893770854567
aF-8.0491455026181615
aF-3.858873656290315
aF-6.4395377386417083
aF5.3241683900776771
aF-3.824424393139318
aF-0.32025300014922198
aF5.6972359114241673
aF-4.6701981438674336
aF-0.53093614398279299
aF5.8698429358025503
aF-3.2014305209169351
aF-0.78179165001653905
aF-7.8033296559161434
aF0.150950646838729
aF-0.26789038129661802
aF-8.4594430243758989
aF-0.47454675426737802
aF0.0099013553295619998
aF-8.0604745626856449
aF0.39116452672081198
aF-1.1482731326237929
aF8.1623677958651815
aF3.175763753157073
aF3.12227977800723
aF9.0180275611902356
aF2.796540057421891
aF2.9708342280665092
aF8.0098503346087515
aF3.0571630271210779
aF4.0504889633720422
aF-9.0608825290682482
aF1.2351406543159069
aF6.2081273984879983
aF-8.71185171550351
aF2.01287864569038
aF6.6230986118932336
aF-9.851146857612429
aF1.530058905742846
aF5.7752238110624852
aF7.7218461457727754
aF2.7938144222830941
aF9.2965521768374142
aF7.7958377328625899
aF3.738639825717784
aF9.2695299255576824
aF6.8589703112109923
aF2.6121225551407621
aF8.9482227931448879
aF4.4944053441964327
aF1.1644155928009079
aF-3.4381477867844299
aF3.854593449518168
aF0.511789176368732
aF-3.690376849350776
aF4.3644329011371958
aF1.27797920097468
aF-2.5058868410488828
aF6.9039374621883089
aF4.0011320409133422
aF-1.43678457270827
aF6.8421039580275727
aF4.2833855245056203
aF-2.3397848987122178
aF6.0912579873130808
aF3.5404898364588129
aF-1.274732634763039
aF7.0632474795904319
aF-5.7088641871913843
aF-1.575668770352407
aF7.5257924844208546
aF-6.3507596864381117
aF-1.05324912432721
aF7.743880310106821
aF-5.143888600431155
aF-1.91690407976239
aF-7.4470895085552771
aF3.344965176211014
aF7.7536071374790776
aF-7.9267488301777567
aF3.9008253103302928
aF8.3534791625623495
aF-6.5848087733649514
aF3.7359839594430411
aF7.7038452556895889
aF-9.6216757776151756
aF3.999846902201873
aF5.9057377517201974
aF-9.0096532975564241
aF4.3248998007989901
aF6.5527841928790762
aF-9.4995788326147448
aF4.5670374857832572
aF5.1558796465308649
aF2.8744955450060061
aF1.911505411714371
aF-9.2058156866153027
aF3.7731456998190871
aF1.6465087867264021
aF-9.0605411602885617
aF2.4477427266233471
aF1.1339313712896839
aF-9.540719618601635
aF4.0084275343422657
aF9.0444876566105705
aF7.6549600964391944
aF4.4475169141206843
aF9.8553807711022792
aF7.8753072621473867
aF3.522842387915031
aF8.8161950651649974
aF8.4366183070788257
aF-3.9598739913003129
aF-9.0734393502491972
aF-4.1204264095831604
aF-3.4019960106575651
aF-8.8654802053034523
aF-3.3825746949769608
aF-4.0942710388245054
aF-8.2437329860092614
aF-4.5590889025733947
aF6.7978912694467768
aF8.0845963681676913
aF-2.4973608819399842
aF6.6045462476655814
aF8.0796714472864082
aF-3.4255275952553421
aF7.577961645167151
aF8.6177599094392736
aF-2.4190867024034119
aF9.0232344956623436
aF4.0512347318707196
aF0.106117837346011
aF8.2356395353882945
aF3.8527593868810919
aF-0.38296468736960598
aF8.8203032357263549
aF3.7994701394515711
aF0.99737172583385703
aF-0.67662964793398905
aF2.7528282969054279
aF4.4731173849496546
aF-1.0246277814285101
aF3.4080944860816
aF5.0633914911129398
aF0.26044696369164599
aF2.8966783376137508
aF4.4828431102344446
aF-8.6866306758563532
aF7.8903804962123658
aF7.7741681053955656
aF-9.1269051761790738
aF7.8063943345877478
aF8.6096348545968819
aF-8.2257967265420895
aF7.0691863842822658
aF7.6638399508258992
aF4.0228732925353619
aF5.8244553292288836
aF-5.8395542120990456
aF4.7726432030289416
aF5.4842019058613038
aF-5.3694768895178244
aF3.505635454030894
aF5.0582797532838644
aF-6.0501248777779422
aF-7.6004772837678907
aF-7.0016856082789847
aF-4.2440349537207673
aF-7.8219475601616599
aF-7.9204741558376606
aF-4.3193909193051088
aF-6.6540343689935559
aF-6.9795115967507178
aF-4.2955531280492423
aF7.258220995872926
aF5.4251408835711592
aF-4.2533145457513744
aF6.6086412920885547
aF4.8072946856690972
aF-4.5618794241309342
aF7.0254691585685336
aF6.244120223912466
aF-4.6704469256087231
aF6.1759512579005582
aF7.439132730335289
aF1.305530309334032
aF6.9966134573445844
aF7.299368019206697
aF0.85179097896164302
aF5.8484484138621466
aF6.5667083191275086
aF1.480222993426743
aF8.8546258954458494
aF-9.1193183924057184
aF2.0417080704788568
aF9.017831445156947
aF-8.3946256062219042
aF2.630846691006048
aF8.005576449030956
aF-8.9325421979194264
aF1.663383222344667
aF6.4420081944580616
aF7.8198701374601756
aF-5.1608695437455028
aF6.8326798313048567
aF8.0067938619714312
aF-6.004276440431811
aF5.8843903356895328
aF8.5663658848342532
aF-4.9856370617827066
asg1650
(lp1662
I650
aI3
asS'storage'
p1663
S'RowMajor'
p1664
sbsS'symmetryParameters'
p1665
g1
(cpMolecule.SymmetryParameters
SymmetryParameters
p1666
tRp1667
(dp1668
S'a'
F18.822178797220726
sS'c'
F18.822178797220726
sS'b'
F18.822178797220726
sS'beta'
p1669
F90
sS'alpha'
p1670
F90
sS'gamma'
p1671
F90
sbsbsS'symmetry'
p1672
g1
(cpMolecule.Symmetry
Symmetry
p1673
tRp1674
(dp1675
S'crystalClass'
p1676
g1
(cpMolecule.CrystalClass
CrystalClassCubic
p1677
tRp1678
(dbsS'transformations'
p1679
g1
(cpCore.Transformation3Container
Transformation3Container
p1680
tRp1681
(dp1682
g1648
(lp1683
g1
(cpCore.Transformation3
Transformation3
p1684
tRp1685
(dp1686
S'rotation'
p1687
g1
(cpCore.Matrix33
Matrix33
p1688
tRp1689
(dp1690
g1648
(lp1691
F1
aF0
aF0
aF0
aF1
aF0
aF0
aF0
aF1
asg1650
(lp1692
I3
aI3
asg1663
g1664
sbsS'translation'
p1693
g1
(cpCore.Vector3
Vector3
p1694
tRp1695
(dp1696
g1648
(lp1697
F0
aF0
aF0
asbsbasbsbsS'bonds'
p1698
(dp1699
S'Single'
p1700
(lp1701
(lp1702
I1
aI0
aa(lp1703
I2
aI0
aa(lp1704
I3
aI0
aa(lp1705
I4
aI0
aa(lp1706
I6
aI5
aa(lp1707
I7
aI5
aa(lp1708
I9
aI8
aa(lp1709
I10
aI8
aa(lp1710
I12
aI11
aa(lp1711
I13
aI11
aa(lp1712
I15
aI14
aa(lp1713
I16
aI14
aa(lp1714
I18
aI17
aa(lp1715
I19
aI17
aa(lp1716
I21
aI20
aa(lp1717
I22
aI20
aa(lp1718
I24
aI23
aa(lp1719
I25
aI23
aa(lp1720
I27
aI26
aa(lp1721
I28
aI26
aa(lp1722
I30
aI29
aa(lp1723
I31
aI29
aa(lp1724
I33
aI32
aa(lp1725
I34
aI32
aa(lp1726
I36
aI35
aa(lp1727
I37
aI35
aa(lp1728
I39
aI38
aa(lp1729
I40
aI38
aa(lp1730
I42
aI41
aa(lp1731
I43
aI41
aa(lp1732
I45
aI44
aa(lp1733
I46
aI44
aa(lp1734
I48
aI47
aa(lp1735
I49
aI47
aa(lp1736
I51
aI50
aa(lp1737
I52
aI50
aa(lp1738
I54
aI53
aa(lp1739
I55
aI53
aa(lp1740
I57
aI56
aa(lp1741
I58
aI56
aa(lp1742
I60
aI59
aa(lp1743
I61
aI59
aa(lp1744
I63
aI62
aa(lp1745
I64
aI62
aa(lp1746
I66
aI65
aa(lp1747
I67
aI65
aa(lp1748
I69
aI68
aa(lp1749
I70
aI68
aa(lp1750
I72
aI71
aa(lp1751
I73
aI71
aa(lp1752
I75
aI74
aa(lp1753
I76
aI74
aa(lp1754
I78
aI77
aa(lp1755
I79
aI77
aa(lp1756
I81
aI80
aa(lp1757
I82
aI80
aa(lp1758
I84
aI83
aa(lp1759
I85
aI83
aa(lp1760
I87
aI86
aa(lp1761
I88
aI86
aa(lp1762
I90
aI89
aa(lp1763
I91
aI89
aa(lp1764
I93
aI92
aa(lp1765
I94
aI92
aa(lp1766
I96
aI95
aa(lp1767
I97
aI95
aa(lp1768
I99
aI98
aa(lp1769
I100
aI98
aa(lp1770
I102
aI101
aa(lp1771
I103
aI101
aa(lp1772
I105
aI104
aa(lp1773
I106
aI104
aa(lp1774
I108
aI107
aa(lp1775
I109
aI107
aa(lp1776
I111
aI110
aa(lp1777
I112
aI110
aa(lp1778
I114
aI113
aa(lp1779
I115
aI113
aa(lp1780
I117
aI116
aa(lp1781
I118
aI116
aa(lp1782
I120
aI119
aa(lp1783
I121
aI119
aa(lp1784
I123
aI122
aa(lp1785
I124
aI122
aa(lp1786
I126
aI125
aa(lp1787
I127
aI125
aa(lp1788
I129
aI128
aa(lp1789
I130
aI128
aa(lp1790
I132
aI131
aa(lp1791
I133
aI131
aa(lp1792
I135
aI134
aa(lp1793
I136
aI134
aa(lp1794
I138
aI137
aa(lp1795
I139
aI137
aa(lp1796
I141
aI140
aa(lp1797
I142
aI140
aa(lp1798
I144
aI143
aa(lp1799
I145
aI143
aa(lp1800
I147
aI146
aa(lp1801
I148
aI146
aa(lp1802
I150
aI149
aa(lp1803
I151
aI149
aa(lp1804
I153
aI152
aa(lp1805
I154
aI152
aa(lp1806
I156
aI155
aa(lp1807
I157
aI155
aa(lp1808
I159
aI158
aa(lp1809
I160
aI158
aa(lp1810
I162
aI161
aa(lp1811
I163
aI161
aa(lp1812
I165
aI164
aa(lp1813
I166
aI164
aa(lp1814
I168
aI167
aa(lp1815
I169
aI167
aa(lp1816
I171
aI170
aa(lp1817
I172
aI170
aa(lp1818
I174
aI173
aa(lp1819
I175
aI173
aa(lp1820
I177
aI176
aa(lp1821
I178
aI176
aa(lp1822
I180
aI179
aa(lp1823
I181
aI179
aa(lp1824
I183
aI182
aa(lp1825
I184
aI182
aa(lp1826
I186
aI185
aa(lp1827
I187
aI185
aa(lp1828
I189
aI188
aa(lp1829
I190
aI188
aa(lp1830
I192
aI191
aa(lp1831
I193
aI191
aa(lp1832
I195
aI194
aa(lp1833
I196
aI194
aa(lp1834
I198
aI197
aa(lp1835
I199
aI197
aa(lp1836
I201
aI200
aa(lp1837
I202
aI200
aa(lp1838
I204
aI203
aa(lp1839
I205
aI203
aa(lp1840
I207
aI206
aa(lp1841
I208
aI206
aa(lp1842
I210
aI209
aa(lp1843
I211
aI209
aa(lp1844
I213
aI212
aa(lp1845
I214
aI212
aa(lp1846
I216
aI215
aa(lp1847
I217
aI215
aa(lp1848
I219
aI218
aa(lp1849
I220
aI218
aa(lp1850
I222
aI221
aa(lp1851
I223
aI221
aa(lp1852
I225
aI224
aa(lp1853
I226
aI224
aa(lp1854
I228
aI227
aa(lp1855
I229
aI227
aa(lp1856
I231
aI230
aa(lp1857
I232
aI230
aa(lp1858
I234
aI233
aa(lp1859
I235
aI233
aa(lp1860
I237
aI236
aa(lp1861
I238
aI236
aa(lp1862
I240
aI239
aa(lp1863
I241
aI239
aa(lp1864
I243
aI242
aa(lp1865
I244
aI242
aa(lp1866
I246
aI245
aa(lp1867
I247
aI245
aa(lp1868
I249
aI248
aa(lp1869
I250
aI248
aa(lp1870
I252
aI251
aa(lp1871
I253
aI251
aa(lp1872
I255
aI254
aa(lp1873
I256
aI254
aa(lp1874
I258
aI257
aa(lp1875
I259
aI257
aa(lp1876
I261
aI260
aa(lp1877
I262
aI260
aa(lp1878
I264
aI263
aa(lp1879
I265
aI263
aa(lp1880
I267
aI266
aa(lp1881
I268
aI266
aa(lp1882
I270
aI269
aa(lp1883
I271
aI269
aa(lp1884
I273
aI272
aa(lp1885
I274
aI272
aa(lp1886
I276
aI275
aa(lp1887
I277
aI275
aa(lp1888
I279
aI278
aa(lp1889
I280
aI278
aa(lp1890
I282
aI281
aa(lp1891
I283
aI281
aa(lp1892
I285
aI284
aa(lp1893
I286
aI284
aa(lp1894
I288
aI287
aa(lp1895
I289
aI287
aa(lp1896
I291
aI290
aa(lp1897
I292
aI290
aa(lp1898
I294
aI293
aa(lp1899
I295
aI293
aa(lp1900
I297
aI296
aa(lp1901
I298
aI296
aa(lp1902
I300
aI299
aa(lp1903
I301
aI299
aa(lp1904
I303
aI302
aa(lp1905
I304
aI302
aa(lp1906
I306
aI305
aa(lp1907
I307
aI305
aa(lp1908
I309
aI308
aa(lp1909
I310
aI308
aa(lp1910
I312
aI311
aa(lp1911
I313
aI311
aa(lp1912
I315
aI314
aa(lp1913
I316
aI314
aa(lp1914
I318
aI317
aa(lp1915
I319
aI317
aa(lp1916
I321
aI320
aa(lp1917
I322
aI320
aa(lp1918
I324
aI323
aa(lp1919
I325
aI323
aa(lp1920
I327
aI326
aa(lp1921
I328
aI326
aa(lp1922
I330
aI329
aa(lp1923
I331
aI329
aa(lp1924
I333
aI332
aa(lp1925
I334
aI332
aa(lp1926
I336
aI335
aa(lp1927
I337
aI335
aa(lp1928
I339
aI338
aa(lp1929
I340
aI338
aa(lp1930
I342
aI341
aa(lp1931
I343
aI341
aa(lp1932
I345
aI344
aa(lp1933
I346
aI344
aa(lp1934
I348
aI347
aa(lp1935
I349
aI347
aa(lp1936
I351
aI350
aa(lp1937
I352
aI350
aa(lp1938
I354
aI353
aa(lp1939
I355
aI353
aa(lp1940
I357
aI356
aa(lp1941
I358
aI356
aa(lp1942
I360
aI359
aa(lp1943
I361
aI359
aa(lp1944
I363
aI362
aa(lp1945
I364
aI362
aa(lp1946
I366
aI365
aa(lp1947
I367
aI365
aa(lp1948
I369
aI368
aa(lp1949
I370
aI368
aa(lp1950
I372
aI371
aa(lp1951
I373
aI371
aa(lp1952
I375
aI374
aa(lp1953
I376
aI374
aa(lp1954
I378
aI377
aa(lp1955
I379
aI377
aa(lp1956
I381
aI380
aa(lp1957
I382
aI380
aa(lp1958
I384
aI383
aa(lp1959
I385
aI383
aa(lp1960
I387
aI386
aa(lp1961
I388
aI386
aa(lp1962
I390
aI389
aa(lp1963
I391
aI389
aa(lp1964
I393
aI392
aa(lp1965
I394
aI392
aa(lp1966
I396
aI395
aa(lp1967
I397
aI395
aa(lp1968
I399
aI398
aa(lp1969
I400
aI398
aa(lp1970
I402
aI401
aa(lp1971
I403
aI401
aa(lp1972
I405
aI404
aa(lp1973
I406
aI404
aa(lp1974
I408
aI407
aa(lp1975
I409
aI407
aa(lp1976
I411
aI410
aa(lp1977
I412
aI410
aa(lp1978
I414
aI413
aa(lp1979
I415
aI413
aa(lp1980
I417
aI416
aa(lp1981
I418
aI416
aa(lp1982
I420
aI419
aa(lp1983
I421
aI419
aa(lp1984
I423
aI422
aa(lp1985
I424
aI422
aa(lp1986
I426
aI425
aa(lp1987
I427
aI425
aa(lp1988
I429
aI428
aa(lp1989
I430
aI428
aa(lp1990
I432
aI431
aa(lp1991
I433
aI431
aa(lp1992
I435
aI434
aa(lp1993
I436
aI434
aa(lp1994
I438
aI437
aa(lp1995
I439
aI437
aa(lp1996
I441
aI440
aa(lp1997
I442
aI440
aa(lp1998
I444
aI443
aa(lp1999
I445
aI443
aa(lp2000
I447
aI446
aa(lp2001
I448
aI446
aa(lp2002
I450
aI449
aa(lp2003
I451
aI449
aa(lp2004
I453
aI452
aa(lp2005
I454
aI452
aa(lp2006
I456
aI455
aa(lp2007
I457
aI455
aa(lp2008
I459
aI458
aa(lp2009
I460
aI458
aa(lp2010
I462
aI461
aa(lp2011
I463
aI461
aa(lp2012
I465
aI464
aa(lp2013
I466
aI464
aa(lp2014
I468
aI467
aa(lp2015
I469
aI467
aa(lp2016
I471
aI470
aa(lp2017
I472
aI470
aa(lp2018
I474
aI473
aa(lp2019
I475
aI473
aa(lp2020
I477
aI476
aa(lp2021
I478
aI476
aa(lp2022
I480
aI479
aa(lp2023
I481
aI479
aa(lp2024
I483
aI482
aa(lp2025
I484
aI482
aa(lp2026
I486
aI485
aa(lp2027
I487
aI485
aa(lp2028
I489
aI488
aa(lp2029
I490
aI488
aa(lp2030
I492
aI491
aa(lp2031
I493
aI491
aa(lp2032
I495
aI494
aa(lp2033
I496
aI494
aa(lp2034
I498
aI497
aa(lp2035
I499
aI497
aa(lp2036
I501
aI500
aa(lp2037
I502
aI500
aa(lp2038
I504
aI503
aa(lp2039
I505
aI503
aa(lp2040
I507
aI506
aa(lp2041
I508
aI506
aa(lp2042
I510
aI509
aa(lp2043
I511
aI509
aa(lp2044
I513
aI512
aa(lp2045
I514
aI512
aa(lp2046
I516
aI515
aa(lp2047
I517
aI515
aa(lp2048
I519
aI518
aa(lp2049
I520
aI518
aa(lp2050
I522
aI521
aa(lp2051
I523
aI521
aa(lp2052
I525
aI524
aa(lp2053
I526
aI524
aa(lp2054
I528
aI527
aa(lp2055
I529
aI527
aa(lp2056
I531
aI530
aa(lp2057
I532
aI530
aa(lp2058
I534
aI533
aa(lp2059
I535
aI533
aa(lp2060
I537
aI536
aa(lp2061
I538
aI536
aa(lp2062
I540
aI539
aa(lp2063
I541
aI539
aa(lp2064
I543
aI542
aa(lp2065
I544
aI542
aa(lp2066
I546
aI545
aa(lp2067
I547
aI545
aa(lp2068
I549
aI548
aa(lp2069
I550
aI548
aa(lp2070
I552
aI551
aa(lp2071
I553
aI551
aa(lp2072
I555
aI554
aa(lp2073
I556
aI554
aa(lp2074
I558
aI557
aa(lp2075
I559
aI557
aa(lp2076
I561
aI560
aa(lp2077
I562
aI560
aa(lp2078
I564
aI563
aa(lp2079
I565
aI563
aa(lp2080
I567
aI566
aa(lp2081
I568
aI566
aa(lp2082
I570
aI569
aa(lp2083
I571
aI569
aa(lp2084
I573
aI572
aa(lp2085
I574
aI572
aa(lp2086
I576
aI575
aa(lp2087
I577
aI575
aa(lp2088
I579
aI578
aa(lp2089
I580
aI578
aa(lp2090
I582
aI581
aa(lp2091
I583
aI581
aa(lp2092
I585
aI584
aa(lp2093
I586
aI584
aa(lp2094
I588
aI587
aa(lp2095
I589
aI587
aa(lp2096
I591
aI590
aa(lp2097
I592
aI590
aa(lp2098
I594
aI593
aa(lp2099
I595
aI593
aa(lp2100
I597
aI596
aa(lp2101
I598
aI596
aa(lp2102
I600
aI599
aa(lp2103
I601
aI599
aa(lp2104
I603
aI602
aa(lp2105
I604
aI602
aa(lp2106
I606
aI605
aa(lp2107
I607
aI605
aa(lp2108
I609
aI608
aa(lp2109
I610
aI608
aa(lp2110
I612
aI611
aa(lp2111
I613
aI611
aa(lp2112
I615
aI614
aa(lp2113
I616
aI614
aa(lp2114
I618
aI617
aa(lp2115
I619
aI617
aa(lp2116
I621
aI620
aa(lp2117
I622
aI620
aa(lp2118
I624
aI623
aa(lp2119
I625
aI623
aa(lp2120
I627
aI626
aa(lp2121
I628
aI626
aa(lp2122
I630
aI629
aa(lp2123
I631
aI629
aa(lp2124
I633
aI632
aa(lp2125
I634
aI632
aa(lp2126
I636
aI635
aa(lp2127
I637
aI635
aa(lp2128
I639
aI638
aa(lp2129
I640
aI638
aa(lp2130
I642
aI641
aa(lp2131
I643
aI641
aa(lp2132
I645
aI644
aa(lp2133
I646
aI644
aa(lp2134
I648
aI647
aa(lp2135
I649
aI647
aassg34
(dp2136
S'atomicNumber'
p2137
(lp2138
I6
aI1
aI1
aI1
aI1
aI8
aI1
aI1
aI8
aI1
aI1
aI8
aI1
aI1
aI8
aI1
aI1
aI8
aI1
aI1
aI8
aI1
aI1
aI8
aI1
aI1
aI8
aI1
aI1
aI8
aI1
aI1
aI8
aI1
aI1
aI8
aI1
aI1
aI8
aI1
aI1
aI8
aI1
aI1
aI8
aI1
aI1
aI8
aI1
aI1
aI8
aI1
aI1
aI8
aI1
aI1
aI8
aI1
aI1
aI8
aI1
aI1
aI8
aI1
aI1
aI8
aI1
aI1
aI8
aI1
aI1
aI8
aI1
aI1
aI8
aI1
aI1
aI8
aI1
aI1
aI8
aI1
aI1
aI8
aI1
aI1
aI8
aI1
aI1
aI8
aI1
aI1
aI8
aI1
aI1
aI8
aI1
aI1
aI8
aI1
aI1
aI8
aI1
aI1
aI8
aI1
aI1
aI8
aI1
aI1
aI8
aI1
aI1
aI8
aI1
aI1
aI8
aI1
aI1
aI8
aI1
aI1
aI8
aI1
aI1
aI8
aI1
aI1
aI8
aI1
aI1
aI8
aI1
aI1
aI8
aI1
aI1
aI8
aI1
aI1
aI8
aI1
aI1
aI8
aI1
aI1
aI8
aI1
aI1
aI8
aI1
aI1
aI8
aI1
aI1
aI8
aI1
aI1
aI8
aI1
aI1
aI8
aI1
aI1
aI8
aI1
aI1
aI8
aI1
aI1
aI8
aI1
aI1
aI8
aI1
aI1
aI8
aI1
aI1
aI8
aI1
aI1
aI8
aI1
aI1
aI8
aI1
aI1
aI8
aI1
aI1
aI8
aI1
aI1
aI8
aI1
aI1
aI8
aI1
aI1
aI8
aI1
aI1
aI8
aI1
aI1
aI8
aI1
aI1
aI8
aI1
aI1
aI8
aI1
aI1
aI8
aI1
aI1
aI8
aI1
aI1
aI8
aI1
aI1
aI8
aI1
aI1
aI8
aI1
aI1
aI8
aI1
aI1
aI8
aI1
aI1
aI8
aI1
aI1
aI8
aI1
aI1
aI8
aI1
aI1
aI8
aI1
aI1
aI8
aI1
aI1
aI8
aI1
aI1
aI8
aI1
aI1
aI8
aI1
aI1
aI8
aI1
aI1
aI8
aI1
aI1
aI8
aI1
aI1
aI8
aI1
aI1
aI8
aI1
aI1
aI8
aI1
aI1
aI8
aI1
aI1
aI8
aI1
aI1
aI8
aI1
aI1
aI8
aI1
aI1
aI8
aI1
aI1
aI8
aI1
aI1
aI8
aI1
aI1
aI8
aI1
aI1
aI8
aI1
aI1
aI8
aI1
aI1
aI8
aI1
aI1
aI8
aI1
aI1
aI8
aI1
aI1
aI8
aI1
aI1
aI8
aI1
aI1
aI8
aI1
aI1
aI8
aI1
aI1
aI8
aI1
aI1
aI8
aI1
aI1
aI8
aI1
aI1
aI8
aI1
aI1
aI8
aI1
aI1
aI8
aI1
aI1
aI8
aI1
aI1
aI8
aI1
aI1
aI8
aI1
aI1
aI8
aI1
aI1
aI8
aI1
aI1
aI8
aI1
aI1
aI8
aI1
aI1
aI8
aI1
aI1
aI8
aI1
aI1
aI8
aI1
aI1
aI8
aI1
aI1
aI8
aI1
aI1
aI8
aI1
aI1
aI8
aI1
aI1
aI8
aI1
aI1
aI8
aI1
aI1
aI8
aI1
aI1
aI8
aI1
aI1
aI8
aI1
aI1
aI8
aI1
aI1
aI8
aI1
aI1
aI8
aI1
aI1
aI8
aI1
aI1
aI8
aI1
aI1
aI8
aI1
aI1
aI8
aI1
aI1
aI8
aI1
aI1
aI8
aI1
aI1
aI8
aI1
aI1
aI8
aI1
aI1
aI8
aI1
aI1
aI8
aI1
aI1
aI8
aI1
aI1
aI8
aI1
aI1
aI8
aI1
aI1
aI8
aI1
aI1
aI8
aI1
aI1
aI8
aI1
aI1
aI8
aI1
aI1
aI8
aI1
aI1
aI8
aI1
aI1
aI8
aI1
aI1
aI8
aI1
aI1
aI8
aI1
aI1
aI8
aI1
aI1
aI8
aI1
aI1
aI8
aI1
aI1
aI8
aI1
aI1
aI8
aI1
aI1
aI8
aI1
aI1
aI8
aI1
aI1
aI8
aI1
aI1
aI8
aI1
aI1
aI8
aI1
aI1
aI8
aI1
aI1
aI8
aI1
aI1
aI8
aI1
aI1
aI8
aI1
aI1
aI8
aI1
aI1
aI8
aI1
aI1
aI8
aI1
aI1
aI8
aI1
aI1
aI8
aI1
aI1
aI8
aI1
aI1
aI8
aI1
aI1
aI8
aI1
aI1
aI8
aI1
aI1
aI8
aI1
aI1
aI8
aI1
aI1
aI8
aI1
aI1
aI8
aI1
aI1
aI8
aI1
aI1
aI8
aI1
aI1
aI8
aI1
aI1
aI8
aI1
aI1
aI8
aI1
aI1
aI8
aI1
aI1
aI8
aI1
aI1
aI8
aI1
aI1
aI8
aI1
aI1
aI8
aI1
aI1
aI8
aI1
aI1
aI8
aI1
aI1
aI8
aI1
aI1
aI8
aI1
aI1
aI8
aI1
aI1
aI8
aI1
aI1
aI8
aI1
aI1
aI8
aI1
aI1
aI8
aI1
aI1
aI8
aI1
aI1
aI8
aI1
aI1
aI8
aI1
aI1
aI8
aI1
aI1
aI8
aI1
aI1
aI8
aI1
aI1
aI8
aI1
aI1
aI8
aI1
aI1
aI8
aI1
aI1
aI8
aI1
aI1
aI8
aI1
aI1
assS'ringSets'
p2139
(lp2140
sS'label'
p2141
S'Methane in Water.'
p2142
sb.