cpCore.Serialization
RawObjectConstructor
p1
(cpMolecule.System
System
p2
tRp3
(dp4
S'energyModel'
p5
g1
(cpMolecule.EnergyModel
EnergyModel
p6
tRp7
(dp8
S'nbModel'
p9
g1
(cpMolecule.NBModelMonteCarlo
NBModelMonteCarlo
p10
tRp11
(dp12
S'buffer'
p13
F0.5
sS'cutoff'
p14
F8.5
sS'electrostaticUnderflow'
p15
F0.5
sS'lennardJonesUnderflow'
p16
F0.20000000000000001
sS'dielectric'
p17
F1
sbsS'mmAtoms'
p18
g1
(cpMolecule.MMAtomContainer
MMAtomContainer
p19
tRp20
(dp21
S'atomFields'
p22
(lp23
S'isActive'
p24
aS'atomType'
p25
aS'ljType'
p26
aS'charge'
p27
asS'atomTypes'
p28
(lp29
S'HW'
p30
aS'OW'
p31
asS'atoms'
p32
(lp33
(lp34
I01
aI1
aI1
aF-0.83399999999999996
aa(lp35
I01
aI0
aI0
aF0.41699999999999998
aa(lp36
I01
aI0
aI0
aF0.41699999999999998
aa(lp37
I01
aI1
aI1
aF-0.83399999999999996
aa(lp38
I01
aI0
aI0
aF0.41699999999999998
aa(lp39
I01
aI0
aI0
aF0.41699999999999998
aa(lp40
I01
aI1
aI1
aF-0.83399999999999996
aa(lp41
I01
aI0
aI0
aF0.41699999999999998
aa(lp42
I01
aI0
aI0
aF0.41699999999999998
aa(lp43
I01
aI1
aI1
aF-0.83399999999999996
aa(lp44
I01
aI0
aI0
aF0.41699999999999998
aa(lp45
I01
aI0
aI0
aF0.41699999999999998
aa(lp46
I01
aI1
aI1
aF-0.83399999999999996
aa(lp47
I01
aI0
aI0
aF0.41699999999999998
aa(lp48
I01
aI0
aI0
aF0.41699999999999998
aa(lp49
I01
aI1
aI1
aF-0.83399999999999996
aa(lp50
I01
aI0
aI0
aF0.41699999999999998
aa(lp51
I01
aI0
aI0
aF0.41699999999999998
aa(lp52
I01
aI1
aI1
aF-0.83399999999999996
aa(lp53
I01
aI0
aI0
aF0.41699999999999998
aa(lp54
I01
aI0
aI0
aF0.41699999999999998
aa(lp55
I01
aI1
aI1
aF-0.83399999999999996
aa(lp56
I01
aI0
aI0
aF0.41699999999999998
aa(lp57
I01
aI0
aI0
aF0.41699999999999998
aa(lp58
I01
aI1
aI1
aF-0.83399999999999996
aa(lp59
I01
aI0
aI0
aF0.41699999999999998
aa(lp60
I01
aI0
aI0
aF0.41699999999999998
aa(lp61
I01
aI1
aI1
aF-0.83399999999999996
aa(lp62
I01
aI0
aI0
aF0.41699999999999998
aa(lp63
I01
aI0
aI0
aF0.41699999999999998
aa(lp64
I01
aI1
aI1
aF-0.83399999999999996
aa(lp65
I01
aI0
aI0
aF0.41699999999999998
aa(lp66
I01
aI0
aI0
aF0.41699999999999998
aa(lp67
I01
aI1
aI1
aF-0.83399999999999996
aa(lp68
I01
aI0
aI0
aF0.41699999999999998
aa(lp69
I01
aI0
aI0
aF0.41699999999999998
aa(lp70
I01
aI1
aI1
aF-0.83399999999999996
aa(lp71
I01
aI0
aI0
aF0.41699999999999998
aa(lp72
I01
aI0
aI0
aF0.41699999999999998
aa(lp73
I01
aI1
aI1
aF-0.83399999999999996
aa(lp74
I01
aI0
aI0
aF0.41699999999999998
aa(lp75
I01
aI0
aI0
aF0.41699999999999998
aa(lp76
I01
aI1
aI1
aF-0.83399999999999996
aa(lp77
I01
aI0
aI0
aF0.41699999999999998
aa(lp78
I01
aI0
aI0
aF0.41699999999999998
aa(lp79
I01
aI1
aI1
aF-0.83399999999999996
aa(lp80
I01
aI0
aI0
aF0.41699999999999998
aa(lp81
I01
aI0
aI0
aF0.41699999999999998
aa(lp82
I01
aI1
aI1
aF-0.83399999999999996
aa(lp83
I01
aI0
aI0
aF0.41699999999999998
aa(lp84
I01
aI0
aI0
aF0.41699999999999998
aa(lp85
I01
aI1
aI1
aF-0.83399999999999996
aa(lp86
I01
aI0
aI0
aF0.41699999999999998
aa(lp87
I01
aI0
aI0
aF0.41699999999999998
aa(lp88
I01
aI1
aI1
aF-0.83399999999999996
aa(lp89
I01
aI0
aI0
aF0.41699999999999998
aa(lp90
I01
aI0
aI0
aF0.41699999999999998
aa(lp91
I01
aI1
aI1
aF-0.83399999999999996
aa(lp92
I01
aI0
aI0
aF0.41699999999999998
aa(lp93
I01
aI0
aI0
aF0.41699999999999998
aa(lp94
I01
aI1
aI1
aF-0.83399999999999996
aa(lp95
I01
aI0
aI0
aF0.41699999999999998
aa(lp96
I01
aI0
aI0
aF0.41699999999999998
aa(lp97
I01
aI1
aI1
aF-0.83399999999999996
aa(lp98
I01
aI0
aI0
aF0.41699999999999998
aa(lp99
I01
aI0
aI0
aF0.41699999999999998
aa(lp100
I01
aI1
aI1
aF-0.83399999999999996
aa(lp101
I01
aI0
aI0
aF0.41699999999999998
aa(lp102
I01
aI0
aI0
aF0.41699999999999998
aa(lp103
I01
aI1
aI1
aF-0.83399999999999996
aa(lp104
I01
aI0
aI0
aF0.41699999999999998
aa(lp105
I01
aI0
aI0
aF0.41699999999999998
aa(lp106
I01
aI1
aI1
aF-0.83399999999999996
aa(lp107
I01
aI0
aI0
aF0.41699999999999998
aa(lp108
I01
aI0
aI0
aF0.41699999999999998
aa(lp109
I01
aI1
aI1
aF-0.83399999999999996
aa(lp110
I01
aI0
aI0
aF0.41699999999999998
aa(lp111
I01
aI0
aI0
aF0.41699999999999998
aa(lp112
I01
aI1
aI1
aF-0.83399999999999996
aa(lp113
I01
aI0
aI0
aF0.41699999999999998
aa(lp114
I01
aI0
aI0
aF0.41699999999999998
aa(lp115
I01
aI1
aI1
aF-0.83399999999999996
aa(lp116
I01
aI0
aI0
aF0.41699999999999998
aa(lp117
I01
aI0
aI0
aF0.41699999999999998
aa(lp118
I01
aI1
aI1
aF-0.83399999999999996
aa(lp119
I01
aI0
aI0
aF0.41699999999999998
aa(lp120
I01
aI0
aI0
aF0.41699999999999998
aa(lp121
I01
aI1
aI1
aF-0.83399999999999996
aa(lp122
I01
aI0
aI0
aF0.41699999999999998
aa(lp123
I01
aI0
aI0
aF0.41699999999999998
aa(lp124
I01
aI1
aI1
aF-0.83399999999999996
aa(lp125
I01
aI0
aI0
aF0.41699999999999998
aa(lp126
I01
aI0
aI0
aF0.41699999999999998
aa(lp127
I01
aI1
aI1
aF-0.83399999999999996
aa(lp128
I01
aI0
aI0
aF0.41699999999999998
aa(lp129
I01
aI0
aI0
aF0.41699999999999998
aa(lp130
I01
aI1
aI1
aF-0.83399999999999996
aa(lp131
I01
aI0
aI0
aF0.41699999999999998
aa(lp132
I01
aI0
aI0
aF0.41699999999999998
aa(lp133
I01
aI1
aI1
aF-0.83399999999999996
aa(lp134
I01
aI0
aI0
aF0.41699999999999998
aa(lp135
I01
aI0
aI0
aF0.41699999999999998
aa(lp136
I01
aI1
aI1
aF-0.83399999999999996
aa(lp137
I01
aI0
aI0
aF0.41699999999999998
aa(lp138
I01
aI0
aI0
aF0.41699999999999998
aa(lp139
I01
aI1
aI1
aF-0.83399999999999996
aa(lp140
I01
aI0
aI0
aF0.41699999999999998
aa(lp141
I01
aI0
aI0
aF0.41699999999999998
aa(lp142
I01
aI1
aI1
aF-0.83399999999999996
aa(lp143
I01
aI0
aI0
aF0.41699999999999998
aa(lp144
I01
aI0
aI0
aF0.41699999999999998
aa(lp145
I01
aI1
aI1
aF-0.83399999999999996
aa(lp146
I01
aI0
aI0
aF0.41699999999999998
aa(lp147
I01
aI0
aI0
aF0.41699999999999998
aa(lp148
I01
aI1
aI1
aF-0.83399999999999996
aa(lp149
I01
aI0
aI0
aF0.41699999999999998
aa(lp150
I01
aI0
aI0
aF0.41699999999999998
aa(lp151
I01
aI1
aI1
aF-0.83399999999999996
aa(lp152
I01
aI0
aI0
aF0.41699999999999998
aa(lp153
I01
aI0
aI0
aF0.41699999999999998
aa(lp154
I01
aI1
aI1
aF-0.83399999999999996
aa(lp155
I01
aI0
aI0
aF0.41699999999999998
aa(lp156
I01
aI0
aI0
aF0.41699999999999998
aa(lp157
I01
aI1
aI1
aF-0.83399999999999996
aa(lp158
I01
aI0
aI0
aF0.41699999999999998
aa(lp159
I01
aI0
aI0
aF0.41699999999999998
aa(lp160
I01
aI1
aI1
aF-0.83399999999999996
aa(lp161
I01
aI0
aI0
aF0.41699999999999998
aa(lp162
I01
aI0
aI0
aF0.41699999999999998
aa(lp163
I01
aI1
aI1
aF-0.83399999999999996
aa(lp164
I01
aI0
aI0
aF0.41699999999999998
aa(lp165
I01
aI0
aI0
aF0.41699999999999998
aa(lp166
I01
aI1
aI1
aF-0.83399999999999996
aa(lp167
I01
aI0
aI0
aF0.41699999999999998
aa(lp168
I01
aI0
aI0
aF0.41699999999999998
aa(lp169
I01
aI1
aI1
aF-0.83399999999999996
aa(lp170
I01
aI0
aI0
aF0.41699999999999998
aa(lp171
I01
aI0
aI0
aF0.41699999999999998
aa(lp172
I01
aI1
aI1
aF-0.83399999999999996
aa(lp173
I01
aI0
aI0
aF0.41699999999999998
aa(lp174
I01
aI0
aI0
aF0.41699999999999998
aa(lp175
I01
aI1
aI1
aF-0.83399999999999996
aa(lp176
I01
aI0
aI0
aF0.41699999999999998
aa(lp177
I01
aI0
aI0
aF0.41699999999999998
aa(lp178
I01
aI1
aI1
aF-0.83399999999999996
aa(lp179
I01
aI0
aI0
aF0.41699999999999998
aa(lp180
I01
aI0
aI0
aF0.41699999999999998
aa(lp181
I01
aI1
aI1
aF-0.83399999999999996
aa(lp182
I01
aI0
aI0
aF0.41699999999999998
aa(lp183
I01
aI0
aI0
aF0.41699999999999998
aa(lp184
I01
aI1
aI1
aF-0.83399999999999996
aa(lp185
I01
aI0
aI0
aF0.41699999999999998
aa(lp186
I01
aI0
aI0
aF0.41699999999999998
aa(lp187
I01
aI1
aI1
aF-0.83399999999999996
aa(lp188
I01
aI0
aI0
aF0.41699999999999998
aa(lp189
I01
aI0
aI0
aF0.41699999999999998
aa(lp190
I01
aI1
aI1
aF-0.83399999999999996
aa(lp191
I01
aI0
aI0
aF0.41699999999999998
aa(lp192
I01
aI0
aI0
aF0.41699999999999998
aa(lp193
I01
aI1
aI1
aF-0.83399999999999996
aa(lp194
I01
aI0
aI0
aF0.41699999999999998
aa(lp195
I01
aI0
aI0
aF0.41699999999999998
aa(lp196
I01
aI1
aI1
aF-0.83399999999999996
aa(lp197
I01
aI0
aI0
aF0.41699999999999998
aa(lp198
I01
aI0
aI0
aF0.41699999999999998
aa(lp199
I01
aI1
aI1
aF-0.83399999999999996
aa(lp200
I01
aI0
aI0
aF0.41699999999999998
aa(lp201
I01
aI0
aI0
aF0.41699999999999998
aa(lp202
I01
aI1
aI1
aF-0.83399999999999996
aa(lp203
I01
aI0
aI0
aF0.41699999999999998
aa(lp204
I01
aI0
aI0
aF0.41699999999999998
aa(lp205
I01
aI1
aI1
aF-0.83399999999999996
aa(lp206
I01
aI0
aI0
aF0.41699999999999998
aa(lp207
I01
aI0
aI0
aF0.41699999999999998
aa(lp208
I01
aI1
aI1
aF-0.83399999999999996
aa(lp209
I01
aI0
aI0
aF0.41699999999999998
aa(lp210
I01
aI0
aI0
aF0.41699999999999998
aa(lp211
I01
aI1
aI1
aF-0.83399999999999996
aa(lp212
I01
aI0
aI0
aF0.41699999999999998
aa(lp213
I01
aI0
aI0
aF0.41699999999999998
aa(lp214
I01
aI1
aI1
aF-0.83399999999999996
aa(lp215
I01
aI0
aI0
aF0.41699999999999998
aa(lp216
I01
aI0
aI0
aF0.41699999999999998
aa(lp217
I01
aI1
aI1
aF-0.83399999999999996
aa(lp218
I01
aI0
aI0
aF0.41699999999999998
aa(lp219
I01
aI0
aI0
aF0.41699999999999998
aa(lp220
I01
aI1
aI1
aF-0.83399999999999996
aa(lp221
I01
aI0
aI0
aF0.41699999999999998
aa(lp222
I01
aI0
aI0
aF0.41699999999999998
aa(lp223
I01
aI1
aI1
aF-0.83399999999999996
aa(lp224
I01
aI0
aI0
aF0.41699999999999998
aa(lp225
I01
aI0
aI0
aF0.41699999999999998
aa(lp226
I01
aI1
aI1
aF-0.83399999999999996
aa(lp227
I01
aI0
aI0
aF0.41699999999999998
aa(lp228
I01
aI0
aI0
aF0.41699999999999998
aa(lp229
I01
aI1
aI1
aF-0.83399999999999996
aa(lp230
I01
aI0
aI0
aF0.41699999999999998
aa(lp231
I01
aI0
aI0
aF0.41699999999999998
aa(lp232
I01
aI1
aI1
aF-0.83399999999999996
aa(lp233
I01
aI0
aI0
aF0.41699999999999998
aa(lp234
I01
aI0
aI0
aF0.41699999999999998
aa(lp235
I01
aI1
aI1
aF-0.83399999999999996
aa(lp236
I01
aI0
aI0
aF0.41699999999999998
aa(lp237
I01
aI0
aI0
aF0.41699999999999998
aa(lp238
I01
aI1
aI1
aF-0.83399999999999996
aa(lp239
I01
aI0
aI0
aF0.41699999999999998
aa(lp240
I01
aI0
aI0
aF0.41699999999999998
aa(lp241
I01
aI1
aI1
aF-0.83399999999999996
aa(lp242
I01
aI0
aI0
aF0.41699999999999998
aa(lp243
I01
aI0
aI0
aF0.41699999999999998
aa(lp244
I01
aI1
aI1
aF-0.83399999999999996
aa(lp245
I01
aI0
aI0
aF0.41699999999999998
aa(lp246
I01
aI0
aI0
aF0.41699999999999998
aa(lp247
I01
aI1
aI1
aF-0.83399999999999996
aa(lp248
I01
aI0
aI0
aF0.41699999999999998
aa(lp249
I01
aI0
aI0
aF0.41699999999999998
aa(lp250
I01
aI1
aI1
aF-0.83399999999999996
aa(lp251
I01
aI0
aI0
aF0.41699999999999998
aa(lp252
I01
aI0
aI0
aF0.41699999999999998
aa(lp253
I01
aI1
aI1
aF-0.83399999999999996
aa(lp254
I01
aI0
aI0
aF0.41699999999999998
aa(lp255
I01
aI0
aI0
aF0.41699999999999998
aa(lp256
I01
aI1
aI1
aF-0.83399999999999996
aa(lp257
I01
aI0
aI0
aF0.41699999999999998
aa(lp258
I01
aI0
aI0
aF0.41699999999999998
aa(lp259
I01
aI1
aI1
aF-0.83399999999999996
aa(lp260
I01
aI0
aI0
aF0.41699999999999998
aa(lp261
I01
aI0
aI0
aF0.41699999999999998
aa(lp262
I01
aI1
aI1
aF-0.83399999999999996
aa(lp263
I01
aI0
aI0
aF0.41699999999999998
aa(lp264
I01
aI0
aI0
aF0.41699999999999998
aa(lp265
I01
aI1
aI1
aF-0.83399999999999996
aa(lp266
I01
aI0
aI0
aF0.41699999999999998
aa(lp267
I01
aI0
aI0
aF0.41699999999999998
aa(lp268
I01
aI1
aI1
aF-0.83399999999999996
aa(lp269
I01
aI0
aI0
aF0.41699999999999998
aa(lp270
I01
aI0
aI0
aF0.41699999999999998
aa(lp271
I01
aI1
aI1
aF-0.83399999999999996
aa(lp272
I01
aI0
aI0
aF0.41699999999999998
aa(lp273
I01
aI0
aI0
aF0.41699999999999998
aa(lp274
I01
aI1
aI1
aF-0.83399999999999996
aa(lp275
I01
aI0
aI0
aF0.41699999999999998
aa(lp276
I01
aI0
aI0
aF0.41699999999999998
aa(lp277
I01
aI1
aI1
aF-0.83399999999999996
aa(lp278
I01
aI0
aI0
aF0.41699999999999998
aa(lp279
I01
aI0
aI0
aF0.41699999999999998
aa(lp280
I01
aI1
aI1
aF-0.83399999999999996
aa(lp281
I01
aI0
aI0
aF0.41699999999999998
aa(lp282
I01
aI0
aI0
aF0.41699999999999998
aa(lp283
I01
aI1
aI1
aF-0.83399999999999996
aa(lp284
I01
aI0
aI0
aF0.41699999999999998
aa(lp285
I01
aI0
aI0
aF0.41699999999999998
aa(lp286
I01
aI1
aI1
aF-0.83399999999999996
aa(lp287
I01
aI0
aI0
aF0.41699999999999998
aa(lp288
I01
aI0
aI0
aF0.41699999999999998
aa(lp289
I01
aI1
aI1
aF-0.83399999999999996
aa(lp290
I01
aI0
aI0
aF0.41699999999999998
aa(lp291
I01
aI0
aI0
aF0.41699999999999998
aa(lp292
I01
aI1
aI1
aF-0.83399999999999996
aa(lp293
I01
aI0
aI0
aF0.41699999999999998
aa(lp294
I01
aI0
aI0
aF0.41699999999999998
aa(lp295
I01
aI1
aI1
aF-0.83399999999999996
aa(lp296
I01
aI0
aI0
aF0.41699999999999998
aa(lp297
I01
aI0
aI0
aF0.41699999999999998
aa(lp298
I01
aI1
aI1
aF-0.83399999999999996
aa(lp299
I01
aI0
aI0
aF0.41699999999999998
aa(lp300
I01
aI0
aI0
aF0.41699999999999998
aa(lp301
I01
aI1
aI1
aF-0.83399999999999996
aa(lp302
I01
aI0
aI0
aF0.41699999999999998
aa(lp303
I01
aI0
aI0
aF0.41699999999999998
aa(lp304
I01
aI1
aI1
aF-0.83399999999999996
aa(lp305
I01
aI0
aI0
aF0.41699999999999998
aa(lp306
I01
aI0
aI0
aF0.41699999999999998
aa(lp307
I01
aI1
aI1
aF-0.83399999999999996
aa(lp308
I01
aI0
aI0
aF0.41699999999999998
aa(lp309
I01
aI0
aI0
aF0.41699999999999998
aa(lp310
I01
aI1
aI1
aF-0.83399999999999996
aa(lp311
I01
aI0
aI0
aF0.41699999999999998
aa(lp312
I01
aI0
aI0
aF0.41699999999999998
aa(lp313
I01
aI1
aI1
aF-0.83399999999999996
aa(lp314
I01
aI0
aI0
aF0.41699999999999998
aa(lp315
I01
aI0
aI0
aF0.41699999999999998
aa(lp316
I01
aI1
aI1
aF-0.83399999999999996
aa(lp317
I01
aI0
aI0
aF0.41699999999999998
aa(lp318
I01
aI0
aI0
aF0.41699999999999998
aa(lp319
I01
aI1
aI1
aF-0.83399999999999996
aa(lp320
I01
aI0
aI0
aF0.41699999999999998
aa(lp321
I01
aI0
aI0
aF0.41699999999999998
aa(lp322
I01
aI1
aI1
aF-0.83399999999999996
aa(lp323
I01
aI0
aI0
aF0.41699999999999998
aa(lp324
I01
aI0
aI0
aF0.41699999999999998
aa(lp325
I01
aI1
aI1
aF-0.83399999999999996
aa(lp326
I01
aI0
aI0
aF0.41699999999999998
aa(lp327
I01
aI0
aI0
aF0.41699999999999998
aa(lp328
I01
aI1
aI1
aF-0.83399999999999996
aa(lp329
I01
aI0
aI0
aF0.41699999999999998
aa(lp330
I01
aI0
aI0
aF0.41699999999999998
aa(lp331
I01
aI1
aI1
aF-0.83399999999999996
aa(lp332
I01
aI0
aI0
aF0.41699999999999998
aa(lp333
I01
aI0
aI0
aF0.41699999999999998
aa(lp334
I01
aI1
aI1
aF-0.83399999999999996
aa(lp335
I01
aI0
aI0
aF0.41699999999999998
aa(lp336
I01
aI0
aI0
aF0.41699999999999998
aa(lp337
I01
aI1
aI1
aF-0.83399999999999996
aa(lp338
I01
aI0
aI0
aF0.41699999999999998
aa(lp339
I01
aI0
aI0
aF0.41699999999999998
aa(lp340
I01
aI1
aI1
aF-0.83399999999999996
aa(lp341
I01
aI0
aI0
aF0.41699999999999998
aa(lp342
I01
aI0
aI0
aF0.41699999999999998
aa(lp343
I01
aI1
aI1
aF-0.83399999999999996
aa(lp344
I01
aI0
aI0
aF0.41699999999999998
aa(lp345
I01
aI0
aI0
aF0.41699999999999998
aa(lp346
I01
aI1
aI1
aF-0.83399999999999996
aa(lp347
I01
aI0
aI0
aF0.41699999999999998
aa(lp348
I01
aI0
aI0
aF0.41699999999999998
aa(lp349
I01
aI1
aI1
aF-0.83399999999999996
aa(lp350
I01
aI0
aI0
aF0.41699999999999998
aa(lp351
I01
aI0
aI0
aF0.41699999999999998
aa(lp352
I01
aI1
aI1
aF-0.83399999999999996
aa(lp353
I01
aI0
aI0
aF0.41699999999999998
aa(lp354
I01
aI0
aI0
aF0.41699999999999998
aa(lp355
I01
aI1
aI1
aF-0.83399999999999996
aa(lp356
I01
aI0
aI0
aF0.41699999999999998
aa(lp357
I01
aI0
aI0
aF0.41699999999999998
aa(lp358
I01
aI1
aI1
aF-0.83399999999999996
aa(lp359
I01
aI0
aI0
aF0.41699999999999998
aa(lp360
I01
aI0
aI0
aF0.41699999999999998
aa(lp361
I01
aI1
aI1
aF-0.83399999999999996
aa(lp362
I01
aI0
aI0
aF0.41699999999999998
aa(lp363
I01
aI0
aI0
aF0.41699999999999998
aa(lp364
I01
aI1
aI1
aF-0.83399999999999996
aa(lp365
I01
aI0
aI0
aF0.41699999999999998
aa(lp366
I01
aI0
aI0
aF0.41699999999999998
aa(lp367
I01
aI1
aI1
aF-0.83399999999999996
aa(lp368
I01
aI0
aI0
aF0.41699999999999998
aa(lp369
I01
aI0
aI0
aF0.41699999999999998
aa(lp370
I01
aI1
aI1
aF-0.83399999999999996
aa(lp371
I01
aI0
aI0
aF0.41699999999999998
aa(lp372
I01
aI0
aI0
aF0.41699999999999998
aa(lp373
I01
aI1
aI1
aF-0.83399999999999996
aa(lp374
I01
aI0
aI0
aF0.41699999999999998
aa(lp375
I01
aI0
aI0
aF0.41699999999999998
aa(lp376
I01
aI1
aI1
aF-0.83399999999999996
aa(lp377
I01
aI0
aI0
aF0.41699999999999998
aa(lp378
I01
aI0
aI0
aF0.41699999999999998
aa(lp379
I01
aI1
aI1
aF-0.83399999999999996
aa(lp380
I01
aI0
aI0
aF0.41699999999999998
aa(lp381
I01
aI0
aI0
aF0.41699999999999998
aa(lp382
I01
aI1
aI1
aF-0.83399999999999996
aa(lp383
I01
aI0
aI0
aF0.41699999999999998
aa(lp384
I01
aI0
aI0
aF0.41699999999999998
aa(lp385
I01
aI1
aI1
aF-0.83399999999999996
aa(lp386
I01
aI0
aI0
aF0.41699999999999998
aa(lp387
I01
aI0
aI0
aF0.41699999999999998
aa(lp388
I01
aI1
aI1
aF-0.83399999999999996
aa(lp389
I01
aI0
aI0
aF0.41699999999999998
aa(lp390
I01
aI0
aI0
aF0.41699999999999998
aa(lp391
I01
aI1
aI1
aF-0.83399999999999996
aa(lp392
I01
aI0
aI0
aF0.41699999999999998
aa(lp393
I01
aI0
aI0
aF0.41699999999999998
aa(lp394
I01
aI1
aI1
aF-0.83399999999999996
aa(lp395
I01
aI0
aI0
aF0.41699999999999998
aa(lp396
I01
aI0
aI0
aF0.41699999999999998
aa(lp397
I01
aI1
aI1
aF-0.83399999999999996
aa(lp398
I01
aI0
aI0
aF0.41699999999999998
aa(lp399
I01
aI0
aI0
aF0.41699999999999998
aa(lp400
I01
aI1
aI1
aF-0.83399999999999996
aa(lp401
I01
aI0
aI0
aF0.41699999999999998
aa(lp402
I01
aI0
aI0
aF0.41699999999999998
aa(lp403
I01
aI1
aI1
aF-0.83399999999999996
aa(lp404
I01
aI0
aI0
aF0.41699999999999998
aa(lp405
I01
aI0
aI0
aF0.41699999999999998
aa(lp406
I01
aI1
aI1
aF-0.83399999999999996
aa(lp407
I01
aI0
aI0
aF0.41699999999999998
aa(lp408
I01
aI0
aI0
aF0.41699999999999998
aa(lp409
I01
aI1
aI1
aF-0.83399999999999996
aa(lp410
I01
aI0
aI0
aF0.41699999999999998
aa(lp411
I01
aI0
aI0
aF0.41699999999999998
aa(lp412
I01
aI1
aI1
aF-0.83399999999999996
aa(lp413
I01
aI0
aI0
aF0.41699999999999998
aa(lp414
I01
aI0
aI0
aF0.41699999999999998
aa(lp415
I01
aI1
aI1
aF-0.83399999999999996
aa(lp416
I01
aI0
aI0
aF0.41699999999999998
aa(lp417
I01
aI0
aI0
aF0.41699999999999998
aa(lp418
I01
aI1
aI1
aF-0.83399999999999996
aa(lp419
I01
aI0
aI0
aF0.41699999999999998
aa(lp420
I01
aI0
aI0
aF0.41699999999999998
aa(lp421
I01
aI1
aI1
aF-0.83399999999999996
aa(lp422
I01
aI0
aI0
aF0.41699999999999998
aa(lp423
I01
aI0
aI0
aF0.41699999999999998
aa(lp424
I01
aI1
aI1
aF-0.83399999999999996
aa(lp425
I01
aI0
aI0
aF0.41699999999999998
aa(lp426
I01
aI0
aI0
aF0.41699999999999998
aa(lp427
I01
aI1
aI1
aF-0.83399999999999996
aa(lp428
I01
aI0
aI0
aF0.41699999999999998
aa(lp429
I01
aI0
aI0
aF0.41699999999999998
aa(lp430
I01
aI1
aI1
aF-0.83399999999999996
aa(lp431
I01
aI0
aI0
aF0.41699999999999998
aa(lp432
I01
aI0
aI0
aF0.41699999999999998
aa(lp433
I01
aI1
aI1
aF-0.83399999999999996
aa(lp434
I01
aI0
aI0
aF0.41699999999999998
aa(lp435
I01
aI0
aI0
aF0.41699999999999998
aa(lp436
I01
aI1
aI1
aF-0.83399999999999996
aa(lp437
I01
aI0
aI0
aF0.41699999999999998
aa(lp438
I01
aI0
aI0
aF0.41699999999999998
aa(lp439
I01
aI1
aI1
aF-0.83399999999999996
aa(lp440
I01
aI0
aI0
aF0.41699999999999998
aa(lp441
I01
aI0
aI0
aF0.41699999999999998
aa(lp442
I01
aI1
aI1
aF-0.83399999999999996
aa(lp443
I01
aI0
aI0
aF0.41699999999999998
aa(lp444
I01
aI0
aI0
aF0.41699999999999998
aa(lp445
I01
aI1
aI1
aF-0.83399999999999996
aa(lp446
I01
aI0
aI0
aF0.41699999999999998
aa(lp447
I01
aI0
aI0
aF0.41699999999999998
aa(lp448
I01
aI1
aI1
aF-0.83399999999999996
aa(lp449
I01
aI0
aI0
aF0.41699999999999998
aa(lp450
I01
aI0
aI0
aF0.41699999999999998
aa(lp451
I01
aI1
aI1
aF-0.83399999999999996
aa(lp452
I01
aI0
aI0
aF0.41699999999999998
aa(lp453
I01
aI0
aI0
aF0.41699999999999998
aa(lp454
I01
aI1
aI1
aF-0.83399999999999996
aa(lp455
I01
aI0
aI0
aF0.41699999999999998
aa(lp456
I01
aI0
aI0
aF0.41699999999999998
aa(lp457
I01
aI1
aI1
aF-0.83399999999999996
aa(lp458
I01
aI0
aI0
aF0.41699999999999998
aa(lp459
I01
aI0
aI0
aF0.41699999999999998
aa(lp460
I01
aI1
aI1
aF-0.83399999999999996
aa(lp461
I01
aI0
aI0
aF0.41699999999999998
aa(lp462
I01
aI0
aI0
aF0.41699999999999998
aa(lp463
I01
aI1
aI1
aF-0.83399999999999996
aa(lp464
I01
aI0
aI0
aF0.41699999999999998
aa(lp465
I01
aI0
aI0
aF0.41699999999999998
aa(lp466
I01
aI1
aI1
aF-0.83399999999999996
aa(lp467
I01
aI0
aI0
aF0.41699999999999998
aa(lp468
I01
aI0
aI0
aF0.41699999999999998
aa(lp469
I01
aI1
aI1
aF-0.83399999999999996
aa(lp470
I01
aI0
aI0
aF0.41699999999999998
aa(lp471
I01
aI0
aI0
aF0.41699999999999998
aa(lp472
I01
aI1
aI1
aF-0.83399999999999996
aa(lp473
I01
aI0
aI0
aF0.41699999999999998
aa(lp474
I01
aI0
aI0
aF0.41699999999999998
aa(lp475
I01
aI1
aI1
aF-0.83399999999999996
aa(lp476
I01
aI0
aI0
aF0.41699999999999998
aa(lp477
I01
aI0
aI0
aF0.41699999999999998
aa(lp478
I01
aI1
aI1
aF-0.83399999999999996
aa(lp479
I01
aI0
aI0
aF0.41699999999999998
aa(lp480
I01
aI0
aI0
aF0.41699999999999998
aa(lp481
I01
aI1
aI1
aF-0.83399999999999996
aa(lp482
I01
aI0
aI0
aF0.41699999999999998
aa(lp483
I01
aI0
aI0
aF0.41699999999999998
aa(lp484
I01
aI1
aI1
aF-0.83399999999999996
aa(lp485
I01
aI0
aI0
aF0.41699999999999998
aa(lp486
I01
aI0
aI0
aF0.41699999999999998
aa(lp487
I01
aI1
aI1
aF-0.83399999999999996
aa(lp488
I01
aI0
aI0
aF0.41699999999999998
aa(lp489
I01
aI0
aI0
aF0.41699999999999998
aa(lp490
I01
aI1
aI1
aF-0.83399999999999996
aa(lp491
I01
aI0
aI0
aF0.41699999999999998
aa(lp492
I01
aI0
aI0
aF0.41699999999999998
aa(lp493
I01
aI1
aI1
aF-0.83399999999999996
aa(lp494
I01
aI0
aI0
aF0.41699999999999998
aa(lp495
I01
aI0
aI0
aF0.41699999999999998
aa(lp496
I01
aI1
aI1
aF-0.83399999999999996
aa(lp497
I01
aI0
aI0
aF0.41699999999999998
aa(lp498
I01
aI0
aI0
aF0.41699999999999998
aa(lp499
I01
aI1
aI1
aF-0.83399999999999996
aa(lp500
I01
aI0
aI0
aF0.41699999999999998
aa(lp501
I01
aI0
aI0
aF0.41699999999999998
aa(lp502
I01
aI1
aI1
aF-0.83399999999999996
aa(lp503
I01
aI0
aI0
aF0.41699999999999998
aa(lp504
I01
aI0
aI0
aF0.41699999999999998
aa(lp505
I01
aI1
aI1
aF-0.83399999999999996
aa(lp506
I01
aI0
aI0
aF0.41699999999999998
aa(lp507
I01
aI0
aI0
aF0.41699999999999998
aa(lp508
I01
aI1
aI1
aF-0.83399999999999996
aa(lp509
I01
aI0
aI0
aF0.41699999999999998
aa(lp510
I01
aI0
aI0
aF0.41699999999999998
aa(lp511
I01
aI1
aI1
aF-0.83399999999999996
aa(lp512
I01
aI0
aI0
aF0.41699999999999998
aa(lp513
I01
aI0
aI0
aF0.41699999999999998
aa(lp514
I01
aI1
aI1
aF-0.83399999999999996
aa(lp515
I01
aI0
aI0
aF0.41699999999999998
aa(lp516
I01
aI0
aI0
aF0.41699999999999998
aa(lp517
I01
aI1
aI1
aF-0.83399999999999996
aa(lp518
I01
aI0
aI0
aF0.41699999999999998
aa(lp519
I01
aI0
aI0
aF0.41699999999999998
aa(lp520
I01
aI1
aI1
aF-0.83399999999999996
aa(lp521
I01
aI0
aI0
aF0.41699999999999998
aa(lp522
I01
aI0
aI0
aF0.41699999999999998
aa(lp523
I01
aI1
aI1
aF-0.83399999999999996
aa(lp524
I01
aI0
aI0
aF0.41699999999999998
aa(lp525
I01
aI0
aI0
aF0.41699999999999998
aa(lp526
I01
aI1
aI1
aF-0.83399999999999996
aa(lp527
I01
aI0
aI0
aF0.41699999999999998
aa(lp528
I01
aI0
aI0
aF0.41699999999999998
aa(lp529
I01
aI1
aI1
aF-0.83399999999999996
aa(lp530
I01
aI0
aI0
aF0.41699999999999998
aa(lp531
I01
aI0
aI0
aF0.41699999999999998
aa(lp532
I01
aI1
aI1
aF-0.83399999999999996
aa(lp533
I01
aI0
aI0
aF0.41699999999999998
aa(lp534
I01
aI0
aI0
aF0.41699999999999998
aa(lp535
I01
aI1
aI1
aF-0.83399999999999996
aa(lp536
I01
aI0
aI0
aF0.41699999999999998
aa(lp537
I01
aI0
aI0
aF0.41699999999999998
aa(lp538
I01
aI1
aI1
aF-0.83399999999999996
aa(lp539
I01
aI0
aI0
aF0.41699999999999998
aa(lp540
I01
aI0
aI0
aF0.41699999999999998
aa(lp541
I01
aI1
aI1
aF-0.83399999999999996
aa(lp542
I01
aI0
aI0
aF0.41699999999999998
aa(lp543
I01
aI0
aI0
aF0.41699999999999998
aa(lp544
I01
aI1
aI1
aF-0.83399999999999996
aa(lp545
I01
aI0
aI0
aF0.41699999999999998
aa(lp546
I01
aI0
aI0
aF0.41699999999999998
aa(lp547
I01
aI1
aI1
aF-0.83399999999999996
aa(lp548
I01
aI0
aI0
aF0.41699999999999998
aa(lp549
I01
aI0
aI0
aF0.41699999999999998
aa(lp550
I01
aI1
aI1
aF-0.83399999999999996
aa(lp551
I01
aI0
aI0
aF0.41699999999999998
aa(lp552
I01
aI0
aI0
aF0.41699999999999998
aa(lp553
I01
aI1
aI1
aF-0.83399999999999996
aa(lp554
I01
aI0
aI0
aF0.41699999999999998
aa(lp555
I01
aI0
aI0
aF0.41699999999999998
aa(lp556
I01
aI1
aI1
aF-0.83399999999999996
aa(lp557
I01
aI0
aI0
aF0.41699999999999998
aa(lp558
I01
aI0
aI0
aF0.41699999999999998
aa(lp559
I01
aI1
aI1
aF-0.83399999999999996
aa(lp560
I01
aI0
aI0
aF0.41699999999999998
aa(lp561
I01
aI0
aI0
aF0.41699999999999998
aa(lp562
I01
aI1
aI1
aF-0.83399999999999996
aa(lp563
I01
aI0
aI0
aF0.41699999999999998
aa(lp564
I01
aI0
aI0
aF0.41699999999999998
aa(lp565
I01
aI1
aI1
aF-0.83399999999999996
aa(lp566
I01
aI0
aI0
aF0.41699999999999998
aa(lp567
I01
aI0
aI0
aF0.41699999999999998
aa(lp568
I01
aI1
aI1
aF-0.83399999999999996
aa(lp569
I01
aI0
aI0
aF0.41699999999999998
aa(lp570
I01
aI0
aI0
aF0.41699999999999998
aa(lp571
I01
aI1
aI1
aF-0.83399999999999996
aa(lp572
I01
aI0
aI0
aF0.41699999999999998
aa(lp573
I01
aI0
aI0
aF0.41699999999999998
aa(lp574
I01
aI1
aI1
aF-0.83399999999999996
aa(lp575
I01
aI0
aI0
aF0.41699999999999998
aa(lp576
I01
aI0
aI0
aF0.41699999999999998
aa(lp577
I01
aI1
aI1
aF-0.83399999999999996
aa(lp578
I01
aI0
aI0
aF0.41699999999999998
aa(lp579
I01
aI0
aI0
aF0.41699999999999998
aa(lp580
I01
aI1
aI1
aF-0.83399999999999996
aa(lp581
I01
aI0
aI0
aF0.41699999999999998
aa(lp582
I01
aI0
aI0
aF0.41699999999999998
aa(lp583
I01
aI1
aI1
aF-0.83399999999999996
aa(lp584
I01
aI0
aI0
aF0.41699999999999998
aa(lp585
I01
aI0
aI0
aF0.41699999999999998
aa(lp586
I01
aI1
aI1
aF-0.83399999999999996
aa(lp587
I01
aI0
aI0
aF0.41699999999999998
aa(lp588
I01
aI0
aI0
aF0.41699999999999998
aa(lp589
I01
aI1
aI1
aF-0.83399999999999996
aa(lp590
I01
aI0
aI0
aF0.41699999999999998
aa(lp591
I01
aI0
aI0
aF0.41699999999999998
aa(lp592
I01
aI1
aI1
aF-0.83399999999999996
aa(lp593
I01
aI0
aI0
aF0.41699999999999998
aa(lp594
I01
aI0
aI0
aF0.41699999999999998
aa(lp595
I01
aI1
aI1
aF-0.83399999999999996
aa(lp596
I01
aI0
aI0
aF0.41699999999999998
aa(lp597
I01
aI0
aI0
aF0.41699999999999998
aa(lp598
I01
aI1
aI1
aF-0.83399999999999996
aa(lp599
I01
aI0
aI0
aF0.41699999999999998
aa(lp600
I01
aI0
aI0
aF0.41699999999999998
aa(lp601
I01
aI1
aI1
aF-0.83399999999999996
aa(lp602
I01
aI0
aI0
aF0.41699999999999998
aa(lp603
I01
aI0
aI0
aF0.41699999999999998
aa(lp604
I01
aI1
aI1
aF-0.83399999999999996
aa(lp605
I01
aI0
aI0
aF0.41699999999999998
aa(lp606
I01
aI0
aI0
aF0.41699999999999998
aa(lp607
I01
aI1
aI1
aF-0.83399999999999996
aa(lp608
I01
aI0
aI0
aF0.41699999999999998
aa(lp609
I01
aI0
aI0
aF0.41699999999999998
aa(lp610
I01
aI1
aI1
aF-0.83399999999999996
aa(lp611
I01
aI0
aI0
aF0.41699999999999998
aa(lp612
I01
aI0
aI0
aF0.41699999999999998
aa(lp613
I01
aI1
aI1
aF-0.83399999999999996
aa(lp614
I01
aI0
aI0
aF0.41699999999999998
aa(lp615
I01
aI0
aI0
aF0.41699999999999998
aa(lp616
I01
aI1
aI1
aF-0.83399999999999996
aa(lp617
I01
aI0
aI0
aF0.41699999999999998
aa(lp618
I01
aI0
aI0
aF0.41699999999999998
aa(lp619
I01
aI1
aI1
aF-0.83399999999999996
aa(lp620
I01
aI0
aI0
aF0.41699999999999998
aa(lp621
I01
aI0
aI0
aF0.41699999999999998
aa(lp622
I01
aI1
aI1
aF-0.83399999999999996
aa(lp623
I01
aI0
aI0
aF0.41699999999999998
aa(lp624
I01
aI0
aI0
aF0.41699999999999998
aa(lp625
I01
aI1
aI1
aF-0.83399999999999996
aa(lp626
I01
aI0
aI0
aF0.41699999999999998
aa(lp627
I01
aI0
aI0
aF0.41699999999999998
aa(lp628
I01
aI1
aI1
aF-0.83399999999999996
aa(lp629
I01
aI0
aI0
aF0.41699999999999998
aa(lp630
I01
aI0
aI0
aF0.41699999999999998
aa(lp631
I01
aI1
aI1
aF-0.83399999999999996
aa(lp632
I01
aI0
aI0
aF0.41699999999999998
aa(lp633
I01
aI0
aI0
aF0.41699999999999998
aa(lp634
I01
aI1
aI1
aF-0.83399999999999996
aa(lp635
I01
aI0
aI0
aF0.41699999999999998
aa(lp636
I01
aI0
aI0
aF0.41699999999999998
aa(lp637
I01
aI1
aI1
aF-0.83399999999999996
aa(lp638
I01
aI0
aI0
aF0.41699999999999998
aa(lp639
I01
aI0
aI0
aF0.41699999999999998
aa(lp640
I01
aI1
aI1
aF-0.83399999999999996
aa(lp641
I01
aI0
aI0
aF0.41699999999999998
aa(lp642
I01
aI0
aI0
aF0.41699999999999998
aa(lp643
I01
aI1
aI1
aF-0.83399999999999996
aa(lp644
I01
aI0
aI0
aF0.41699999999999998
aa(lp645
I01
aI0
aI0
aF0.41699999999999998
aa(lp646
I01
aI1
aI1
aF-0.83399999999999996
aa(lp647
I01
aI0
aI0
aF0.41699999999999998
aa(lp648
I01
aI0
aI0
aF0.41699999999999998
aa(lp649
I01
aI1
aI1
aF-0.83399999999999996
aa(lp650
I01
aI0
aI0
aF0.41699999999999998
aa(lp651
I01
aI0
aI0
aF0.41699999999999998
aa(lp652
I01
aI1
aI1
aF-0.83399999999999996
aa(lp653
I01
aI0
aI0
aF0.41699999999999998
aa(lp654
I01
aI0
aI0
aF0.41699999999999998
aa(lp655
I01
aI1
aI1
aF-0.83399999999999996
aa(lp656
I01
aI0
aI0
aF0.41699999999999998
aa(lp657
I01
aI0
aI0
aF0.41699999999999998
aa(lp658
I01
aI1
aI1
aF-0.83399999999999996
aa(lp659
I01
aI0
aI0
aF0.41699999999999998
aa(lp660
I01
aI0
aI0
aF0.41699999999999998
aa(lp661
I01
aI1
aI1
aF-0.83399999999999996
aa(lp662
I01
aI0
aI0
aF0.41699999999999998
aa(lp663
I01
aI0
aI0
aF0.41699999999999998
aa(lp664
I01
aI1
aI1
aF-0.83399999999999996
aa(lp665
I01
aI0
aI0
aF0.41699999999999998
aa(lp666
I01
aI0
aI0
aF0.41699999999999998
aa(lp667
I01
aI1
aI1
aF-0.83399999999999996
aa(lp668
I01
aI0
aI0
aF0.41699999999999998
aa(lp669
I01
aI0
aI0
aF0.41699999999999998
aa(lp670
I01
aI1
aI1
aF-0.83399999999999996
aa(lp671
I01
aI0
aI0
aF0.41699999999999998
aa(lp672
I01
aI0
aI0
aF0.41699999999999998
aa(lp673
I01
aI1
aI1
aF-0.83399999999999996
aa(lp674
I01
aI0
aI0
aF0.41699999999999998
aa(lp675
I01
aI0
aI0
aF0.41699999999999998
aa(lp676
I01
aI1
aI1
aF-0.83399999999999996
aa(lp677
I01
aI0
aI0
aF0.41699999999999998
aa(lp678
I01
aI0
aI0
aF0.41699999999999998
aa(lp679
I01
aI1
aI1
aF-0.83399999999999996
aa(lp680
I01
aI0
aI0
aF0.41699999999999998
aa(lp681
I01
aI0
aI0
aF0.41699999999999998
aasbsS'interactions14'
p682
g1
(cpCore.PairList
SelfPairList
p683
tRp684
sS'mmModel'
p685
g1
(cpMolecule.MMModel
MMModelOPLS
p686
tRp687
(dp688
S'lennardJonesScale14'
p689
F0.5
sS'label'
p690
S'OPLS'
p691
sS'lennardJonesStyle'
p692
g691
sS'electrostaticScale14'
p693
F0.5
sS'path'
p694
NsS'fullPath'
p695
NsS'parameterSet'
p696
Nsbsg690
S'OPLS/Monte Carlo'
p697
sS'ljParameters'
p698
g1
(cpMolecule.LJParameterContainer
LJParameterContainer
p699
tRp700
(dp701
S'parameterKeys'
p702
(lp703
g30
ag31
asg690
S'Lennard-Jones'
p704
sS'epsilons'
p705
(lp706
F0
aF0.63638640000000013
asS'numberOfTypes'
p707
I2
sS'sigmas'
p708
(lp709
F0
aF3.1506099999999999
asS'analyticForm'
p710
S'OPLS'
p711
sbsS'mmTerms'
p712
g1
(cpMolecule.MMTermContainer
MMTermContainer
p713
tRp714
(dp715
S'Harmonic Bond'
p716
g1
(cpMolecule.HarmonicBondContainer
HarmonicBondContainer
p717
tRp718
(dp719
S'terms'
p720
(lp721
(lp722
I1
aI0
aI0
aI01
aa(lp723
I2
aI0
aI0
aI01
aa(lp724
I4
aI3
aI0
aI01
aa(lp725
I5
aI3
aI0
aI01
aa(lp726
I7
aI6
aI0
aI01
aa(lp727
I8
aI6
aI0
aI01
aa(lp728
I10
aI9
aI0
aI01
aa(lp729
I11
aI9
aI0
aI01
aa(lp730
I13
aI12
aI0
aI01
aa(lp731
I14
aI12
aI0
aI01
aa(lp732
I16
aI15
aI0
aI01
aa(lp733
I17
aI15
aI0
aI01
aa(lp734
I19
aI18
aI0
aI01
aa(lp735
I20
aI18
aI0
aI01
aa(lp736
I22
aI21
aI0
aI01
aa(lp737
I23
aI21
aI0
aI01
aa(lp738
I25
aI24
aI0
aI01
aa(lp739
I26
aI24
aI0
aI01
aa(lp740
I28
aI27
aI0
aI01
aa(lp741
I29
aI27
aI0
aI01
aa(lp742
I31
aI30
aI0
aI01
aa(lp743
I32
aI30
aI0
aI01
aa(lp744
I34
aI33
aI0
aI01
aa(lp745
I35
aI33
aI0
aI01
aa(lp746
I37
aI36
aI0
aI01
aa(lp747
I38
aI36
aI0
aI01
aa(lp748
I40
aI39
aI0
aI01
aa(lp749
I41
aI39
aI0
aI01
aa(lp750
I43
aI42
aI0
aI01
aa(lp751
I44
aI42
aI0
aI01
aa(lp752
I46
aI45
aI0
aI01
aa(lp753
I47
aI45
aI0
aI01
aa(lp754
I49
aI48
aI0
aI01
aa(lp755
I50
aI48
aI0
aI01
aa(lp756
I52
aI51
aI0
aI01
aa(lp757
I53
aI51
aI0
aI01
aa(lp758
I55
aI54
aI0
aI01
aa(lp759
I56
aI54
aI0
aI01
aa(lp760
I58
aI57
aI0
aI01
aa(lp761
I59
aI57
aI0
aI01
aa(lp762
I61
aI60
aI0
aI01
aa(lp763
I62
aI60
aI0
aI01
aa(lp764
I64
aI63
aI0
aI01
aa(lp765
I65
aI63
aI0
aI01
aa(lp766
I67
aI66
aI0
aI01
aa(lp767
I68
aI66
aI0
aI01
aa(lp768
I70
aI69
aI0
aI01
aa(lp769
I71
aI69
aI0
aI01
aa(lp770
I73
aI72
aI0
aI01
aa(lp771
I74
aI72
aI0
aI01
aa(lp772
I76
aI75
aI0
aI01
aa(lp773
I77
aI75
aI0
aI01
aa(lp774
I79
aI78
aI0
aI01
aa(lp775
I80
aI78
aI0
aI01
aa(lp776
I82
aI81
aI0
aI01
aa(lp777
I83
aI81
aI0
aI01
aa(lp778
I85
aI84
aI0
aI01
aa(lp779
I86
aI84
aI0
aI01
aa(lp780
I88
aI87
aI0
aI01
aa(lp781
I89
aI87
aI0
aI01
aa(lp782
I91
aI90
aI0
aI01
aa(lp783
I92
aI90
aI0
aI01
aa(lp784
I94
aI93
aI0
aI01
aa(lp785
I95
aI93
aI0
aI01
aa(lp786
I97
aI96
aI0
aI01
aa(lp787
I98
aI96
aI0
aI01
aa(lp788
I100
aI99
aI0
aI01
aa(lp789
I101
aI99
aI0
aI01
aa(lp790
I103
aI102
aI0
aI01
aa(lp791
I104
aI102
aI0
aI01
aa(lp792
I106
aI105
aI0
aI01
aa(lp793
I107
aI105
aI0
aI01
aa(lp794
I109
aI108
aI0
aI01
aa(lp795
I110
aI108
aI0
aI01
aa(lp796
I112
aI111
aI0
aI01
aa(lp797
I113
aI111
aI0
aI01
aa(lp798
I115
aI114
aI0
aI01
aa(lp799
I116
aI114
aI0
aI01
aa(lp800
I118
aI117
aI0
aI01
aa(lp801
I119
aI117
aI0
aI01
aa(lp802
I121
aI120
aI0
aI01
aa(lp803
I122
aI120
aI0
aI01
aa(lp804
I124
aI123
aI0
aI01
aa(lp805
I125
aI123
aI0
aI01
aa(lp806
I127
aI126
aI0
aI01
aa(lp807
I128
aI126
aI0
aI01
aa(lp808
I130
aI129
aI0
aI01
aa(lp809
I131
aI129
aI0
aI01
aa(lp810
I133
aI132
aI0
aI01
aa(lp811
I134
aI132
aI0
aI01
aa(lp812
I136
aI135
aI0
aI01
aa(lp813
I137
aI135
aI0
aI01
aa(lp814
I139
aI138
aI0
aI01
aa(lp815
I140
aI138
aI0
aI01
aa(lp816
I142
aI141
aI0
aI01
aa(lp817
I143
aI141
aI0
aI01
aa(lp818
I145
aI144
aI0
aI01
aa(lp819
I146
aI144
aI0
aI01
aa(lp820
I148
aI147
aI0
aI01
aa(lp821
I149
aI147
aI0
aI01
aa(lp822
I151
aI150
aI0
aI01
aa(lp823
I152
aI150
aI0
aI01
aa(lp824
I154
aI153
aI0
aI01
aa(lp825
I155
aI153
aI0
aI01
aa(lp826
I157
aI156
aI0
aI01
aa(lp827
I158
aI156
aI0
aI01
aa(lp828
I160
aI159
aI0
aI01
aa(lp829
I161
aI159
aI0
aI01
aa(lp830
I163
aI162
aI0
aI01
aa(lp831
I164
aI162
aI0
aI01
aa(lp832
I166
aI165
aI0
aI01
aa(lp833
I167
aI165
aI0
aI01
aa(lp834
I169
aI168
aI0
aI01
aa(lp835
I170
aI168
aI0
aI01
aa(lp836
I172
aI171
aI0
aI01
aa(lp837
I173
aI171
aI0
aI01
aa(lp838
I175
aI174
aI0
aI01
aa(lp839
I176
aI174
aI0
aI01
aa(lp840
I178
aI177
aI0
aI01
aa(lp841
I179
aI177
aI0
aI01
aa(lp842
I181
aI180
aI0
aI01
aa(lp843
I182
aI180
aI0
aI01
aa(lp844
I184
aI183
aI0
aI01
aa(lp845
I185
aI183
aI0
aI01
aa(lp846
I187
aI186
aI0
aI01
aa(lp847
I188
aI186
aI0
aI01
aa(lp848
I190
aI189
aI0
aI01
aa(lp849
I191
aI189
aI0
aI01
aa(lp850
I193
aI192
aI0
aI01
aa(lp851
I194
aI192
aI0
aI01
aa(lp852
I196
aI195
aI0
aI01
aa(lp853
I197
aI195
aI0
aI01
aa(lp854
I199
aI198
aI0
aI01
aa(lp855
I200
aI198
aI0
aI01
aa(lp856
I202
aI201
aI0
aI01
aa(lp857
I203
aI201
aI0
aI01
aa(lp858
I205
aI204
aI0
aI01
aa(lp859
I206
aI204
aI0
aI01
aa(lp860
I208
aI207
aI0
aI01
aa(lp861
I209
aI207
aI0
aI01
aa(lp862
I211
aI210
aI0
aI01
aa(lp863
I212
aI210
aI0
aI01
aa(lp864
I214
aI213
aI0
aI01
aa(lp865
I215
aI213
aI0
aI01
aa(lp866
I217
aI216
aI0
aI01
aa(lp867
I218
aI216
aI0
aI01
aa(lp868
I220
aI219
aI0
aI01
aa(lp869
I221
aI219
aI0
aI01
aa(lp870
I223
aI222
aI0
aI01
aa(lp871
I224
aI222
aI0
aI01
aa(lp872
I226
aI225
aI0
aI01
aa(lp873
I227
aI225
aI0
aI01
aa(lp874
I229
aI228
aI0
aI01
aa(lp875
I230
aI228
aI0
aI01
aa(lp876
I232
aI231
aI0
aI01
aa(lp877
I233
aI231
aI0
aI01
aa(lp878
I235
aI234
aI0
aI01
aa(lp879
I236
aI234
aI0
aI01
aa(lp880
I238
aI237
aI0
aI01
aa(lp881
I239
aI237
aI0
aI01
aa(lp882
I241
aI240
aI0
aI01
aa(lp883
I242
aI240
aI0
aI01
aa(lp884
I244
aI243
aI0
aI01
aa(lp885
I245
aI243
aI0
aI01
aa(lp886
I247
aI246
aI0
aI01
aa(lp887
I248
aI246
aI0
aI01
aa(lp888
I250
aI249
aI0
aI01
aa(lp889
I251
aI249
aI0
aI01
aa(lp890
I253
aI252
aI0
aI01
aa(lp891
I254
aI252
aI0
aI01
aa(lp892
I256
aI255
aI0
aI01
aa(lp893
I257
aI255
aI0
aI01
aa(lp894
I259
aI258
aI0
aI01
aa(lp895
I260
aI258
aI0
aI01
aa(lp896
I262
aI261
aI0
aI01
aa(lp897
I263
aI261
aI0
aI01
aa(lp898
I265
aI264
aI0
aI01
aa(lp899
I266
aI264
aI0
aI01
aa(lp900
I268
aI267
aI0
aI01
aa(lp901
I269
aI267
aI0
aI01
aa(lp902
I271
aI270
aI0
aI01
aa(lp903
I272
aI270
aI0
aI01
aa(lp904
I274
aI273
aI0
aI01
aa(lp905
I275
aI273
aI0
aI01
aa(lp906
I277
aI276
aI0
aI01
aa(lp907
I278
aI276
aI0
aI01
aa(lp908
I280
aI279
aI0
aI01
aa(lp909
I281
aI279
aI0
aI01
aa(lp910
I283
aI282
aI0
aI01
aa(lp911
I284
aI282
aI0
aI01
aa(lp912
I286
aI285
aI0
aI01
aa(lp913
I287
aI285
aI0
aI01
aa(lp914
I289
aI288
aI0
aI01
aa(lp915
I290
aI288
aI0
aI01
aa(lp916
I292
aI291
aI0
aI01
aa(lp917
I293
aI291
aI0
aI01
aa(lp918
I295
aI294
aI0
aI01
aa(lp919
I296
aI294
aI0
aI01
aa(lp920
I298
aI297
aI0
aI01
aa(lp921
I299
aI297
aI0
aI01
aa(lp922
I301
aI300
aI0
aI01
aa(lp923
I302
aI300
aI0
aI01
aa(lp924
I304
aI303
aI0
aI01
aa(lp925
I305
aI303
aI0
aI01
aa(lp926
I307
aI306
aI0
aI01
aa(lp927
I308
aI306
aI0
aI01
aa(lp928
I310
aI309
aI0
aI01
aa(lp929
I311
aI309
aI0
aI01
aa(lp930
I313
aI312
aI0
aI01
aa(lp931
I314
aI312
aI0
aI01
aa(lp932
I316
aI315
aI0
aI01
aa(lp933
I317
aI315
aI0
aI01
aa(lp934
I319
aI318
aI0
aI01
aa(lp935
I320
aI318
aI0
aI01
aa(lp936
I322
aI321
aI0
aI01
aa(lp937
I323
aI321
aI0
aI01
aa(lp938
I325
aI324
aI0
aI01
aa(lp939
I326
aI324
aI0
aI01
aa(lp940
I328
aI327
aI0
aI01
aa(lp941
I329
aI327
aI0
aI01
aa(lp942
I331
aI330
aI0
aI01
aa(lp943
I332
aI330
aI0
aI01
aa(lp944
I334
aI333
aI0
aI01
aa(lp945
I335
aI333
aI0
aI01
aa(lp946
I337
aI336
aI0
aI01
aa(lp947
I338
aI336
aI0
aI01
aa(lp948
I340
aI339
aI0
aI01
aa(lp949
I341
aI339
aI0
aI01
aa(lp950
I343
aI342
aI0
aI01
aa(lp951
I344
aI342
aI0
aI01
aa(lp952
I346
aI345
aI0
aI01
aa(lp953
I347
aI345
aI0
aI01
aa(lp954
I349
aI348
aI0
aI01
aa(lp955
I350
aI348
aI0
aI01
aa(lp956
I352
aI351
aI0
aI01
aa(lp957
I353
aI351
aI0
aI01
aa(lp958
I355
aI354
aI0
aI01
aa(lp959
I356
aI354
aI0
aI01
aa(lp960
I358
aI357
aI0
aI01
aa(lp961
I359
aI357
aI0
aI01
aa(lp962
I361
aI360
aI0
aI01
aa(lp963
I362
aI360
aI0
aI01
aa(lp964
I364
aI363
aI0
aI01
aa(lp965
I365
aI363
aI0
aI01
aa(lp966
I367
aI366
aI0
aI01
aa(lp967
I368
aI366
aI0
aI01
aa(lp968
I370
aI369
aI0
aI01
aa(lp969
I371
aI369
aI0
aI01
aa(lp970
I373
aI372
aI0
aI01
aa(lp971
I374
aI372
aI0
aI01
aa(lp972
I376
aI375
aI0
aI01
aa(lp973
I377
aI375
aI0
aI01
aa(lp974
I379
aI378
aI0
aI01
aa(lp975
I380
aI378
aI0
aI01
aa(lp976
I382
aI381
aI0
aI01
aa(lp977
I383
aI381
aI0
aI01
aa(lp978
I385
aI384
aI0
aI01
aa(lp979
I386
aI384
aI0
aI01
aa(lp980
I388
aI387
aI0
aI01
aa(lp981
I389
aI387
aI0
aI01
aa(lp982
I391
aI390
aI0
aI01
aa(lp983
I392
aI390
aI0
aI01
aa(lp984
I394
aI393
aI0
aI01
aa(lp985
I395
aI393
aI0
aI01
aa(lp986
I397
aI396
aI0
aI01
aa(lp987
I398
aI396
aI0
aI01
aa(lp988
I400
aI399
aI0
aI01
aa(lp989
I401
aI399
aI0
aI01
aa(lp990
I403
aI402
aI0
aI01
aa(lp991
I404
aI402
aI0
aI01
aa(lp992
I406
aI405
aI0
aI01
aa(lp993
I407
aI405
aI0
aI01
aa(lp994
I409
aI408
aI0
aI01
aa(lp995
I410
aI408
aI0
aI01
aa(lp996
I412
aI411
aI0
aI01
aa(lp997
I413
aI411
aI0
aI01
aa(lp998
I415
aI414
aI0
aI01
aa(lp999
I416
aI414
aI0
aI01
aa(lp1000
I418
aI417
aI0
aI01
aa(lp1001
I419
aI417
aI0
aI01
aa(lp1002
I421
aI420
aI0
aI01
aa(lp1003
I422
aI420
aI0
aI01
aa(lp1004
I424
aI423
aI0
aI01
aa(lp1005
I425
aI423
aI0
aI01
aa(lp1006
I427
aI426
aI0
aI01
aa(lp1007
I428
aI426
aI0
aI01
aa(lp1008
I430
aI429
aI0
aI01
aa(lp1009
I431
aI429
aI0
aI01
aa(lp1010
I433
aI432
aI0
aI01
aa(lp1011
I434
aI432
aI0
aI01
aa(lp1012
I436
aI435
aI0
aI01
aa(lp1013
I437
aI435
aI0
aI01
aa(lp1014
I439
aI438
aI0
aI01
aa(lp1015
I440
aI438
aI0
aI01
aa(lp1016
I442
aI441
aI0
aI01
aa(lp1017
I443
aI441
aI0
aI01
aa(lp1018
I445
aI444
aI0
aI01
aa(lp1019
I446
aI444
aI0
aI01
aa(lp1020
I448
aI447
aI0
aI01
aa(lp1021
I449
aI447
aI0
aI01
aa(lp1022
I451
aI450
aI0
aI01
aa(lp1023
I452
aI450
aI0
aI01
aa(lp1024
I454
aI453
aI0
aI01
aa(lp1025
I455
aI453
aI0
aI01
aa(lp1026
I457
aI456
aI0
aI01
aa(lp1027
I458
aI456
aI0
aI01
aa(lp1028
I460
aI459
aI0
aI01
aa(lp1029
I461
aI459
aI0
aI01
aa(lp1030
I463
aI462
aI0
aI01
aa(lp1031
I464
aI462
aI0
aI01
aa(lp1032
I466
aI465
aI0
aI01
aa(lp1033
I467
aI465
aI0
aI01
aa(lp1034
I469
aI468
aI0
aI01
aa(lp1035
I470
aI468
aI0
aI01
aa(lp1036
I472
aI471
aI0
aI01
aa(lp1037
I473
aI471
aI0
aI01
aa(lp1038
I475
aI474
aI0
aI01
aa(lp1039
I476
aI474
aI0
aI01
aa(lp1040
I478
aI477
aI0
aI01
aa(lp1041
I479
aI477
aI0
aI01
aa(lp1042
I481
aI480
aI0
aI01
aa(lp1043
I482
aI480
aI0
aI01
aa(lp1044
I484
aI483
aI0
aI01
aa(lp1045
I485
aI483
aI0
aI01
aa(lp1046
I487
aI486
aI0
aI01
aa(lp1047
I488
aI486
aI0
aI01
aa(lp1048
I490
aI489
aI0
aI01
aa(lp1049
I491
aI489
aI0
aI01
aa(lp1050
I493
aI492
aI0
aI01
aa(lp1051
I494
aI492
aI0
aI01
aa(lp1052
I496
aI495
aI0
aI01
aa(lp1053
I497
aI495
aI0
aI01
aa(lp1054
I499
aI498
aI0
aI01
aa(lp1055
I500
aI498
aI0
aI01
aa(lp1056
I502
aI501
aI0
aI01
aa(lp1057
I503
aI501
aI0
aI01
aa(lp1058
I505
aI504
aI0
aI01
aa(lp1059
I506
aI504
aI0
aI01
aa(lp1060
I508
aI507
aI0
aI01
aa(lp1061
I509
aI507
aI0
aI01
aa(lp1062
I511
aI510
aI0
aI01
aa(lp1063
I512
aI510
aI0
aI01
aa(lp1064
I514
aI513
aI0
aI01
aa(lp1065
I515
aI513
aI0
aI01
aa(lp1066
I517
aI516
aI0
aI01
aa(lp1067
I518
aI516
aI0
aI01
aa(lp1068
I520
aI519
aI0
aI01
aa(lp1069
I521
aI519
aI0
aI01
aa(lp1070
I523
aI522
aI0
aI01
aa(lp1071
I524
aI522
aI0
aI01
aa(lp1072
I526
aI525
aI0
aI01
aa(lp1073
I527
aI525
aI0
aI01
aa(lp1074
I529
aI528
aI0
aI01
aa(lp1075
I530
aI528
aI0
aI01
aa(lp1076
I532
aI531
aI0
aI01
aa(lp1077
I533
aI531
aI0
aI01
aa(lp1078
I535
aI534
aI0
aI01
aa(lp1079
I536
aI534
aI0
aI01
aa(lp1080
I538
aI537
aI0
aI01
aa(lp1081
I539
aI537
aI0
aI01
aa(lp1082
I541
aI540
aI0
aI01
aa(lp1083
I542
aI540
aI0
aI01
aa(lp1084
I544
aI543
aI0
aI01
aa(lp1085
I545
aI543
aI0
aI01
aa(lp1086
I547
aI546
aI0
aI01
aa(lp1087
I548
aI546
aI0
aI01
aa(lp1088
I550
aI549
aI0
aI01
aa(lp1089
I551
aI549
aI0
aI01
aa(lp1090
I553
aI552
aI0
aI01
aa(lp1091
I554
aI552
aI0
aI01
aa(lp1092
I556
aI555
aI0
aI01
aa(lp1093
I557
aI555
aI0
aI01
aa(lp1094
I559
aI558
aI0
aI01
aa(lp1095
I560
aI558
aI0
aI01
aa(lp1096
I562
aI561
aI0
aI01
aa(lp1097
I563
aI561
aI0
aI01
aa(lp1098
I565
aI564
aI0
aI01
aa(lp1099
I566
aI564
aI0
aI01
aa(lp1100
I568
aI567
aI0
aI01
aa(lp1101
I569
aI567
aI0
aI01
aa(lp1102
I571
aI570
aI0
aI01
aa(lp1103
I572
aI570
aI0
aI01
aa(lp1104
I574
aI573
aI0
aI01
aa(lp1105
I575
aI573
aI0
aI01
aa(lp1106
I577
aI576
aI0
aI01
aa(lp1107
I578
aI576
aI0
aI01
aa(lp1108
I580
aI579
aI0
aI01
aa(lp1109
I581
aI579
aI0
aI01
aa(lp1110
I583
aI582
aI0
aI01
aa(lp1111
I584
aI582
aI0
aI01
aa(lp1112
I586
aI585
aI0
aI01
aa(lp1113
I587
aI585
aI0
aI01
aa(lp1114
I589
aI588
aI0
aI01
aa(lp1115
I590
aI588
aI0
aI01
aa(lp1116
I592
aI591
aI0
aI01
aa(lp1117
I593
aI591
aI0
aI01
aa(lp1118
I595
aI594
aI0
aI01
aa(lp1119
I596
aI594
aI0
aI01
aa(lp1120
I598
aI597
aI0
aI01
aa(lp1121
I599
aI597
aI0
aI01
aa(lp1122
I601
aI600
aI0
aI01
aa(lp1123
I602
aI600
aI0
aI01
aa(lp1124
I604
aI603
aI0
aI01
aa(lp1125
I605
aI603
aI0
aI01
aa(lp1126
I607
aI606
aI0
aI01
aa(lp1127
I608
aI606
aI0
aI01
aa(lp1128
I610
aI609
aI0
aI01
aa(lp1129
I611
aI609
aI0
aI01
aa(lp1130
I613
aI612
aI0
aI01
aa(lp1131
I614
aI612
aI0
aI01
aa(lp1132
I616
aI615
aI0
aI01
aa(lp1133
I617
aI615
aI0
aI01
aa(lp1134
I619
aI618
aI0
aI01
aa(lp1135
I620
aI618
aI0
aI01
aa(lp1136
I622
aI621
aI0
aI01
aa(lp1137
I623
aI621
aI0
aI01
aa(lp1138
I625
aI624
aI0
aI01
aa(lp1139
I626
aI624
aI0
aI01
aa(lp1140
I628
aI627
aI0
aI01
aa(lp1141
I629
aI627
aI0
aI01
aa(lp1142
I631
aI630
aI0
aI01
aa(lp1143
I632
aI630
aI0
aI01
aa(lp1144
I634
aI633
aI0
aI01
aa(lp1145
I635
aI633
aI0
aI01
aa(lp1146
I637
aI636
aI0
aI01
aa(lp1147
I638
aI636
aI0
aI01
aa(lp1148
I640
aI639
aI0
aI01
aa(lp1149
I641
aI639
aI0
aI01
aa(lp1150
I643
aI642
aI0
aI01
aa(lp1151
I644
aI642
aI0
aI01
aa(lp1152
I646
aI645
aI0
aI01
aa(lp1153
I647
aI645
aI0
aI01
aasS'parameters'
p1154
(lp1155
(lp1156
F0.95720000000000005
aF2215.8464000000004
aasg702
(lp1157
S'OW:HW'
p1158
asg690
g716
sS'is12Interaction'
p1159
I01
sS'parameterFields'
p1160
(lp1161
S'equilibriumValue'
p1162
aS'forceConstant'
p1163
asS'termFields'
p1164
(lp1165
S'atom1'
p1166
aS'atom2'
p1167
aS'parameter'
p1168
ag24
asbsS'Urey-Bradley'
p1169
g1
(g717
tRp1170
(dp1171
g720
(lp1172
(lp1173
I2
aI1
aI0
aI01
aa(lp1174
I5
aI4
aI0
aI01
aa(lp1175
I8
aI7
aI0
aI01
aa(lp1176
I11
aI10
aI0
aI01
aa(lp1177
I14
aI13
aI0
aI01
aa(lp1178
I17
aI16
aI0
aI01
aa(lp1179
I20
aI19
aI0
aI01
aa(lp1180
I23
aI22
aI0
aI01
aa(lp1181
I26
aI25
aI0
aI01
aa(lp1182
I29
aI28
aI0
aI01
aa(lp1183
I32
aI31
aI0
aI01
aa(lp1184
I35
aI34
aI0
aI01
aa(lp1185
I38
aI37
aI0
aI01
aa(lp1186
I41
aI40
aI0
aI01
aa(lp1187
I44
aI43
aI0
aI01
aa(lp1188
I47
aI46
aI0
aI01
aa(lp1189
I50
aI49
aI0
aI01
aa(lp1190
I53
aI52
aI0
aI01
aa(lp1191
I56
aI55
aI0
aI01
aa(lp1192
I59
aI58
aI0
aI01
aa(lp1193
I62
aI61
aI0
aI01
aa(lp1194
I65
aI64
aI0
aI01
aa(lp1195
I68
aI67
aI0
aI01
aa(lp1196
I71
aI70
aI0
aI01
aa(lp1197
I74
aI73
aI0
aI01
aa(lp1198
I77
aI76
aI0
aI01
aa(lp1199
I80
aI79
aI0
aI01
aa(lp1200
I83
aI82
aI0
aI01
aa(lp1201
I86
aI85
aI0
aI01
aa(lp1202
I89
aI88
aI0
aI01
aa(lp1203
I92
aI91
aI0
aI01
aa(lp1204
I95
aI94
aI0
aI01
aa(lp1205
I98
aI97
aI0
aI01
aa(lp1206
I101
aI100
aI0
aI01
aa(lp1207
I104
aI103
aI0
aI01
aa(lp1208
I107
aI106
aI0
aI01
aa(lp1209
I110
aI109
aI0
aI01
aa(lp1210
I113
aI112
aI0
aI01
aa(lp1211
I116
aI115
aI0
aI01
aa(lp1212
I119
aI118
aI0
aI01
aa(lp1213
I122
aI121
aI0
aI01
aa(lp1214
I125
aI124
aI0
aI01
aa(lp1215
I128
aI127
aI0
aI01
aa(lp1216
I131
aI130
aI0
aI01
aa(lp1217
I134
aI133
aI0
aI01
aa(lp1218
I137
aI136
aI0
aI01
aa(lp1219
I140
aI139
aI0
aI01
aa(lp1220
I143
aI142
aI0
aI01
aa(lp1221
I146
aI145
aI0
aI01
aa(lp1222
I149
aI148
aI0
aI01
aa(lp1223
I152
aI151
aI0
aI01
aa(lp1224
I155
aI154
aI0
aI01
aa(lp1225
I158
aI157
aI0
aI01
aa(lp1226
I161
aI160
aI0
aI01
aa(lp1227
I164
aI163
aI0
aI01
aa(lp1228
I167
aI166
aI0
aI01
aa(lp1229
I170
aI169
aI0
aI01
aa(lp1230
I173
aI172
aI0
aI01
aa(lp1231
I176
aI175
aI0
aI01
aa(lp1232
I179
aI178
aI0
aI01
aa(lp1233
I182
aI181
aI0
aI01
aa(lp1234
I185
aI184
aI0
aI01
aa(lp1235
I188
aI187
aI0
aI01
aa(lp1236
I191
aI190
aI0
aI01
aa(lp1237
I194
aI193
aI0
aI01
aa(lp1238
I197
aI196
aI0
aI01
aa(lp1239
I200
aI199
aI0
aI01
aa(lp1240
I203
aI202
aI0
aI01
aa(lp1241
I206
aI205
aI0
aI01
aa(lp1242
I209
aI208
aI0
aI01
aa(lp1243
I212
aI211
aI0
aI01
aa(lp1244
I215
aI214
aI0
aI01
aa(lp1245
I218
aI217
aI0
aI01
aa(lp1246
I221
aI220
aI0
aI01
aa(lp1247
I224
aI223
aI0
aI01
aa(lp1248
I227
aI226
aI0
aI01
aa(lp1249
I230
aI229
aI0
aI01
aa(lp1250
I233
aI232
aI0
aI01
aa(lp1251
I236
aI235
aI0
aI01
aa(lp1252
I239
aI238
aI0
aI01
aa(lp1253
I242
aI241
aI0
aI01
aa(lp1254
I245
aI244
aI0
aI01
aa(lp1255
I248
aI247
aI0
aI01
aa(lp1256
I251
aI250
aI0
aI01
aa(lp1257
I254
aI253
aI0
aI01
aa(lp1258
I257
aI256
aI0
aI01
aa(lp1259
I260
aI259
aI0
aI01
aa(lp1260
I263
aI262
aI0
aI01
aa(lp1261
I266
aI265
aI0
aI01
aa(lp1262
I269
aI268
aI0
aI01
aa(lp1263
I272
aI271
aI0
aI01
aa(lp1264
I275
aI274
aI0
aI01
aa(lp1265
I278
aI277
aI0
aI01
aa(lp1266
I281
aI280
aI0
aI01
aa(lp1267
I284
aI283
aI0
aI01
aa(lp1268
I287
aI286
aI0
aI01
aa(lp1269
I290
aI289
aI0
aI01
aa(lp1270
I293
aI292
aI0
aI01
aa(lp1271
I296
aI295
aI0
aI01
aa(lp1272
I299
aI298
aI0
aI01
aa(lp1273
I302
aI301
aI0
aI01
aa(lp1274
I305
aI304
aI0
aI01
aa(lp1275
I308
aI307
aI0
aI01
aa(lp1276
I311
aI310
aI0
aI01
aa(lp1277
I314
aI313
aI0
aI01
aa(lp1278
I317
aI316
aI0
aI01
aa(lp1279
I320
aI319
aI0
aI01
aa(lp1280
I323
aI322
aI0
aI01
aa(lp1281
I326
aI325
aI0
aI01
aa(lp1282
I329
aI328
aI0
aI01
aa(lp1283
I332
aI331
aI0
aI01
aa(lp1284
I335
aI334
aI0
aI01
aa(lp1285
I338
aI337
aI0
aI01
aa(lp1286
I341
aI340
aI0
aI01
aa(lp1287
I344
aI343
aI0
aI01
aa(lp1288
I347
aI346
aI0
aI01
aa(lp1289
I350
aI349
aI0
aI01
aa(lp1290
I353
aI352
aI0
aI01
aa(lp1291
I356
aI355
aI0
aI01
aa(lp1292
I359
aI358
aI0
aI01
aa(lp1293
I362
aI361
aI0
aI01
aa(lp1294
I365
aI364
aI0
aI01
aa(lp1295
I368
aI367
aI0
aI01
aa(lp1296
I371
aI370
aI0
aI01
aa(lp1297
I374
aI373
aI0
aI01
aa(lp1298
I377
aI376
aI0
aI01
aa(lp1299
I380
aI379
aI0
aI01
aa(lp1300
I383
aI382
aI0
aI01
aa(lp1301
I386
aI385
aI0
aI01
aa(lp1302
I389
aI388
aI0
aI01
aa(lp1303
I392
aI391
aI0
aI01
aa(lp1304
I395
aI394
aI0
aI01
aa(lp1305
I398
aI397
aI0
aI01
aa(lp1306
I401
aI400
aI0
aI01
aa(lp1307
I404
aI403
aI0
aI01
aa(lp1308
I407
aI406
aI0
aI01
aa(lp1309
I410
aI409
aI0
aI01
aa(lp1310
I413
aI412
aI0
aI01
aa(lp1311
I416
aI415
aI0
aI01
aa(lp1312
I419
aI418
aI0
aI01
aa(lp1313
I422
aI421
aI0
aI01
aa(lp1314
I425
aI424
aI0
aI01
aa(lp1315
I428
aI427
aI0
aI01
aa(lp1316
I431
aI430
aI0
aI01
aa(lp1317
I434
aI433
aI0
aI01
aa(lp1318
I437
aI436
aI0
aI01
aa(lp1319
I440
aI439
aI0
aI01
aa(lp1320
I443
aI442
aI0
aI01
aa(lp1321
I446
aI445
aI0
aI01
aa(lp1322
I449
aI448
aI0
aI01
aa(lp1323
I452
aI451
aI0
aI01
aa(lp1324
I455
aI454
aI0
aI01
aa(lp1325
I458
aI457
aI0
aI01
aa(lp1326
I461
aI460
aI0
aI01
aa(lp1327
I464
aI463
aI0
aI01
aa(lp1328
I467
aI466
aI0
aI01
aa(lp1329
I470
aI469
aI0
aI01
aa(lp1330
I473
aI472
aI0
aI01
aa(lp1331
I476
aI475
aI0
aI01
aa(lp1332
I479
aI478
aI0
aI01
aa(lp1333
I482
aI481
aI0
aI01
aa(lp1334
I485
aI484
aI0
aI01
aa(lp1335
I488
aI487
aI0
aI01
aa(lp1336
I491
aI490
aI0
aI01
aa(lp1337
I494
aI493
aI0
aI01
aa(lp1338
I497
aI496
aI0
aI01
aa(lp1339
I500
aI499
aI0
aI01
aa(lp1340
I503
aI502
aI0
aI01
aa(lp1341
I506
aI505
aI0
aI01
aa(lp1342
I509
aI508
aI0
aI01
aa(lp1343
I512
aI511
aI0
aI01
aa(lp1344
I515
aI514
aI0
aI01
aa(lp1345
I518
aI517
aI0
aI01
aa(lp1346
I521
aI520
aI0
aI01
aa(lp1347
I524
aI523
aI0
aI01
aa(lp1348
I527
aI526
aI0
aI01
aa(lp1349
I530
aI529
aI0
aI01
aa(lp1350
I533
aI532
aI0
aI01
aa(lp1351
I536
aI535
aI0
aI01
aa(lp1352
I539
aI538
aI0
aI01
aa(lp1353
I542
aI541
aI0
aI01
aa(lp1354
I545
aI544
aI0
aI01
aa(lp1355
I548
aI547
aI0
aI01
aa(lp1356
I551
aI550
aI0
aI01
aa(lp1357
I554
aI553
aI0
aI01
aa(lp1358
I557
aI556
aI0
aI01
aa(lp1359
I560
aI559
aI0
aI01
aa(lp1360
I563
aI562
aI0
aI01
aa(lp1361
I566
aI565
aI0
aI01
aa(lp1362
I569
aI568
aI0
aI01
aa(lp1363
I572
aI571
aI0
aI01
aa(lp1364
I575
aI574
aI0
aI01
aa(lp1365
I578
aI577
aI0
aI01
aa(lp1366
I581
aI580
aI0
aI01
aa(lp1367
I584
aI583
aI0
aI01
aa(lp1368
I587
aI586
aI0
aI01
aa(lp1369
I590
aI589
aI0
aI01
aa(lp1370
I593
aI592
aI0
aI01
aa(lp1371
I596
aI595
aI0
aI01
aa(lp1372
I599
aI598
aI0
aI01
aa(lp1373
I602
aI601
aI0
aI01
aa(lp1374
I605
aI604
aI0
aI01
aa(lp1375
I608
aI607
aI0
aI01
aa(lp1376
I611
aI610
aI0
aI01
aa(lp1377
I614
aI613
aI0
aI01
aa(lp1378
I617
aI616
aI0
aI01
aa(lp1379
I620
aI619
aI0
aI01
aa(lp1380
I623
aI622
aI0
aI01
aa(lp1381
I626
aI625
aI0
aI01
aa(lp1382
I629
aI628
aI0
aI01
aa(lp1383
I632
aI631
aI0
aI01
aa(lp1384
I635
aI634
aI0
aI01
aa(lp1385
I638
aI637
aI0
aI01
aa(lp1386
I641
aI640
aI0
aI01
aa(lp1387
I644
aI643
aI0
aI01
aa(lp1388
I647
aI646
aI0
aI01
aasg1154
(lp1389
(lp1390
F1.5139
aF160.03800000000001
aasg702
(lp1391
S'HW:OW:HW'
p1392
asg690
g1169
sg1159
I00
sg1160
(lp1393
g1162
ag1163
asg1164
(lp1394
g1166
ag1167
ag1168
ag24
asbsS'Harmonic Angle'
p1395
g1
(cpMolecule.HarmonicAngleContainer
HarmonicAngleContainer
p1396
tRp1397
(dp1398
g720
(lp1399
(lp1400
I2
aI0
aI1
aI0
aI01
aa(lp1401
I5
aI3
aI4
aI0
aI01
aa(lp1402
I8
aI6
aI7
aI0
aI01
aa(lp1403
I11
aI9
aI10
aI0
aI01
aa(lp1404
I14
aI12
aI13
aI0
aI01
aa(lp1405
I17
aI15
aI16
aI0
aI01
aa(lp1406
I20
aI18
aI19
aI0
aI01
aa(lp1407
I23
aI21
aI22
aI0
aI01
aa(lp1408
I26
aI24
aI25
aI0
aI01
aa(lp1409
I29
aI27
aI28
aI0
aI01
aa(lp1410
I32
aI30
aI31
aI0
aI01
aa(lp1411
I35
aI33
aI34
aI0
aI01
aa(lp1412
I38
aI36
aI37
aI0
aI01
aa(lp1413
I41
aI39
aI40
aI0
aI01
aa(lp1414
I44
aI42
aI43
aI0
aI01
aa(lp1415
I47
aI45
aI46
aI0
aI01
aa(lp1416
I50
aI48
aI49
aI0
aI01
aa(lp1417
I53
aI51
aI52
aI0
aI01
aa(lp1418
I56
aI54
aI55
aI0
aI01
aa(lp1419
I59
aI57
aI58
aI0
aI01
aa(lp1420
I62
aI60
aI61
aI0
aI01
aa(lp1421
I65
aI63
aI64
aI0
aI01
aa(lp1422
I68
aI66
aI67
aI0
aI01
aa(lp1423
I71
aI69
aI70
aI0
aI01
aa(lp1424
I74
aI72
aI73
aI0
aI01
aa(lp1425
I77
aI75
aI76
aI0
aI01
aa(lp1426
I80
aI78
aI79
aI0
aI01
aa(lp1427
I83
aI81
aI82
aI0
aI01
aa(lp1428
I86
aI84
aI85
aI0
aI01
aa(lp1429
I89
aI87
aI88
aI0
aI01
aa(lp1430
I92
aI90
aI91
aI0
aI01
aa(lp1431
I95
aI93
aI94
aI0
aI01
aa(lp1432
I98
aI96
aI97
aI0
aI01
aa(lp1433
I101
aI99
aI100
aI0
aI01
aa(lp1434
I104
aI102
aI103
aI0
aI01
aa(lp1435
I107
aI105
aI106
aI0
aI01
aa(lp1436
I110
aI108
aI109
aI0
aI01
aa(lp1437
I113
aI111
aI112
aI0
aI01
aa(lp1438
I116
aI114
aI115
aI0
aI01
aa(lp1439
I119
aI117
aI118
aI0
aI01
aa(lp1440
I122
aI120
aI121
aI0
aI01
aa(lp1441
I125
aI123
aI124
aI0
aI01
aa(lp1442
I128
aI126
aI127
aI0
aI01
aa(lp1443
I131
aI129
aI130
aI0
aI01
aa(lp1444
I134
aI132
aI133
aI0
aI01
aa(lp1445
I137
aI135
aI136
aI0
aI01
aa(lp1446
I140
aI138
aI139
aI0
aI01
aa(lp1447
I143
aI141
aI142
aI0
aI01
aa(lp1448
I146
aI144
aI145
aI0
aI01
aa(lp1449
I149
aI147
aI148
aI0
aI01
aa(lp1450
I152
aI150
aI151
aI0
aI01
aa(lp1451
I155
aI153
aI154
aI0
aI01
aa(lp1452
I158
aI156
aI157
aI0
aI01
aa(lp1453
I161
aI159
aI160
aI0
aI01
aa(lp1454
I164
aI162
aI163
aI0
aI01
aa(lp1455
I167
aI165
aI166
aI0
aI01
aa(lp1456
I170
aI168
aI169
aI0
aI01
aa(lp1457
I173
aI171
aI172
aI0
aI01
aa(lp1458
I176
aI174
aI175
aI0
aI01
aa(lp1459
I179
aI177
aI178
aI0
aI01
aa(lp1460
I182
aI180
aI181
aI0
aI01
aa(lp1461
I185
aI183
aI184
aI0
aI01
aa(lp1462
I188
aI186
aI187
aI0
aI01
aa(lp1463
I191
aI189
aI190
aI0
aI01
aa(lp1464
I194
aI192
aI193
aI0
aI01
aa(lp1465
I197
aI195
aI196
aI0
aI01
aa(lp1466
I200
aI198
aI199
aI0
aI01
aa(lp1467
I203
aI201
aI202
aI0
aI01
aa(lp1468
I206
aI204
aI205
aI0
aI01
aa(lp1469
I209
aI207
aI208
aI0
aI01
aa(lp1470
I212
aI210
aI211
aI0
aI01
aa(lp1471
I215
aI213
aI214
aI0
aI01
aa(lp1472
I218
aI216
aI217
aI0
aI01
aa(lp1473
I221
aI219
aI220
aI0
aI01
aa(lp1474
I224
aI222
aI223
aI0
aI01
aa(lp1475
I227
aI225
aI226
aI0
aI01
aa(lp1476
I230
aI228
aI229
aI0
aI01
aa(lp1477
I233
aI231
aI232
aI0
aI01
aa(lp1478
I236
aI234
aI235
aI0
aI01
aa(lp1479
I239
aI237
aI238
aI0
aI01
aa(lp1480
I242
aI240
aI241
aI0
aI01
aa(lp1481
I245
aI243
aI244
aI0
aI01
aa(lp1482
I248
aI246
aI247
aI0
aI01
aa(lp1483
I251
aI249
aI250
aI0
aI01
aa(lp1484
I254
aI252
aI253
aI0
aI01
aa(lp1485
I257
aI255
aI256
aI0
aI01
aa(lp1486
I260
aI258
aI259
aI0
aI01
aa(lp1487
I263
aI261
aI262
aI0
aI01
aa(lp1488
I266
aI264
aI265
aI0
aI01
aa(lp1489
I269
aI267
aI268
aI0
aI01
aa(lp1490
I272
aI270
aI271
aI0
aI01
aa(lp1491
I275
aI273
aI274
aI0
aI01
aa(lp1492
I278
aI276
aI277
aI0
aI01
aa(lp1493
I281
aI279
aI280
aI0
aI01
aa(lp1494
I284
aI282
aI283
aI0
aI01
aa(lp1495
I287
aI285
aI286
aI0
aI01
aa(lp1496
I290
aI288
aI289
aI0
aI01
aa(lp1497
I293
aI291
aI292
aI0
aI01
aa(lp1498
I296
aI294
aI295
aI0
aI01
aa(lp1499
I299
aI297
aI298
aI0
aI01
aa(lp1500
I302
aI300
aI301
aI0
aI01
aa(lp1501
I305
aI303
aI304
aI0
aI01
aa(lp1502
I308
aI306
aI307
aI0
aI01
aa(lp1503
I311
aI309
aI310
aI0
aI01
aa(lp1504
I314
aI312
aI313
aI0
aI01
aa(lp1505
I317
aI315
aI316
aI0
aI01
aa(lp1506
I320
aI318
aI319
aI0
aI01
aa(lp1507
I323
aI321
aI322
aI0
aI01
aa(lp1508
I326
aI324
aI325
aI0
aI01
aa(lp1509
I329
aI327
aI328
aI0
aI01
aa(lp1510
I332
aI330
aI331
aI0
aI01
aa(lp1511
I335
aI333
aI334
aI0
aI01
aa(lp1512
I338
aI336
aI337
aI0
aI01
aa(lp1513
I341
aI339
aI340
aI0
aI01
aa(lp1514
I344
aI342
aI343
aI0
aI01
aa(lp1515
I347
aI345
aI346
aI0
aI01
aa(lp1516
I350
aI348
aI349
aI0
aI01
aa(lp1517
I353
aI351
aI352
aI0
aI01
aa(lp1518
I356
aI354
aI355
aI0
aI01
aa(lp1519
I359
aI357
aI358
aI0
aI01
aa(lp1520
I362
aI360
aI361
aI0
aI01
aa(lp1521
I365
aI363
aI364
aI0
aI01
aa(lp1522
I368
aI366
aI367
aI0
aI01
aa(lp1523
I371
aI369
aI370
aI0
aI01
aa(lp1524
I374
aI372
aI373
aI0
aI01
aa(lp1525
I377
aI375
aI376
aI0
aI01
aa(lp1526
I380
aI378
aI379
aI0
aI01
aa(lp1527
I383
aI381
aI382
aI0
aI01
aa(lp1528
I386
aI384
aI385
aI0
aI01
aa(lp1529
I389
aI387
aI388
aI0
aI01
aa(lp1530
I392
aI390
aI391
aI0
aI01
aa(lp1531
I395
aI393
aI394
aI0
aI01
aa(lp1532
I398
aI396
aI397
aI0
aI01
aa(lp1533
I401
aI399
aI400
aI0
aI01
aa(lp1534
I404
aI402
aI403
aI0
aI01
aa(lp1535
I407
aI405
aI406
aI0
aI01
aa(lp1536
I410
aI408
aI409
aI0
aI01
aa(lp1537
I413
aI411
aI412
aI0
aI01
aa(lp1538
I416
aI414
aI415
aI0
aI01
aa(lp1539
I419
aI417
aI418
aI0
aI01
aa(lp1540
I422
aI420
aI421
aI0
aI01
aa(lp1541
I425
aI423
aI424
aI0
aI01
aa(lp1542
I428
aI426
aI427
aI0
aI01
aa(lp1543
I431
aI429
aI430
aI0
aI01
aa(lp1544
I434
aI432
aI433
aI0
aI01
aa(lp1545
I437
aI435
aI436
aI0
aI01
aa(lp1546
I440
aI438
aI439
aI0
aI01
aa(lp1547
I443
aI441
aI442
aI0
aI01
aa(lp1548
I446
aI444
aI445
aI0
aI01
aa(lp1549
I449
aI447
aI448
aI0
aI01
aa(lp1550
I452
aI450
aI451
aI0
aI01
aa(lp1551
I455
aI453
aI454
aI0
aI01
aa(lp1552
I458
aI456
aI457
aI0
aI01
aa(lp1553
I461
aI459
aI460
aI0
aI01
aa(lp1554
I464
aI462
aI463
aI0
aI01
aa(lp1555
I467
aI465
aI466
aI0
aI01
aa(lp1556
I470
aI468
aI469
aI0
aI01
aa(lp1557
I473
aI471
aI472
aI0
aI01
aa(lp1558
I476
aI474
aI475
aI0
aI01
aa(lp1559
I479
aI477
aI478
aI0
aI01
aa(lp1560
I482
aI480
aI481
aI0
aI01
aa(lp1561
I485
aI483
aI484
aI0
aI01
aa(lp1562
I488
aI486
aI487
aI0
aI01
aa(lp1563
I491
aI489
aI490
aI0
aI01
aa(lp1564
I494
aI492
aI493
aI0
aI01
aa(lp1565
I497
aI495
aI496
aI0
aI01
aa(lp1566
I500
aI498
aI499
aI0
aI01
aa(lp1567
I503
aI501
aI502
aI0
aI01
aa(lp1568
I506
aI504
aI505
aI0
aI01
aa(lp1569
I509
aI507
aI508
aI0
aI01
aa(lp1570
I512
aI510
aI511
aI0
aI01
aa(lp1571
I515
aI513
aI514
aI0
aI01
aa(lp1572
I518
aI516
aI517
aI0
aI01
aa(lp1573
I521
aI519
aI520
aI0
aI01
aa(lp1574
I524
aI522
aI523
aI0
aI01
aa(lp1575
I527
aI525
aI526
aI0
aI01
aa(lp1576
I530
aI528
aI529
aI0
aI01
aa(lp1577
I533
aI531
aI532
aI0
aI01
aa(lp1578
I536
aI534
aI535
aI0
aI01
aa(lp1579
I539
aI537
aI538
aI0
aI01
aa(lp1580
I542
aI540
aI541
aI0
aI01
aa(lp1581
I545
aI543
aI544
aI0
aI01
aa(lp1582
I548
aI546
aI547
aI0
aI01
aa(lp1583
I551
aI549
aI550
aI0
aI01
aa(lp1584
I554
aI552
aI553
aI0
aI01
aa(lp1585
I557
aI555
aI556
aI0
aI01
aa(lp1586
I560
aI558
aI559
aI0
aI01
aa(lp1587
I563
aI561
aI562
aI0
aI01
aa(lp1588
I566
aI564
aI565
aI0
aI01
aa(lp1589
I569
aI567
aI568
aI0
aI01
aa(lp1590
I572
aI570
aI571
aI0
aI01
aa(lp1591
I575
aI573
aI574
aI0
aI01
aa(lp1592
I578
aI576
aI577
aI0
aI01
aa(lp1593
I581
aI579
aI580
aI0
aI01
aa(lp1594
I584
aI582
aI583
aI0
aI01
aa(lp1595
I587
aI585
aI586
aI0
aI01
aa(lp1596
I590
aI588
aI589
aI0
aI01
aa(lp1597
I593
aI591
aI592
aI0
aI01
aa(lp1598
I596
aI594
aI595
aI0
aI01
aa(lp1599
I599
aI597
aI598
aI0
aI01
aa(lp1600
I602
aI600
aI601
aI0
aI01
aa(lp1601
I605
aI603
aI604
aI0
aI01
aa(lp1602
I608
aI606
aI607
aI0
aI01
aa(lp1603
I611
aI609
aI610
aI0
aI01
aa(lp1604
I614
aI612
aI613
aI0
aI01
aa(lp1605
I617
aI615
aI616
aI0
aI01
aa(lp1606
I620
aI618
aI619
aI0
aI01
aa(lp1607
I623
aI621
aI622
aI0
aI01
aa(lp1608
I626
aI624
aI625
aI0
aI01
aa(lp1609
I629
aI627
aI628
aI0
aI01
aa(lp1610
I632
aI630
aI631
aI0
aI01
aa(lp1611
I635
aI633
aI634
aI0
aI01
aa(lp1612
I638
aI636
aI637
aI0
aI01
aa(lp1613
I641
aI639
aI640
aI0
aI01
aa(lp1614
I644
aI642
aI643
aI0
aI01
aa(lp1615
I647
aI645
aI646
aI0
aI01
aasg1154
(lp1616
(lp1617
F1.8242181341844732
aF142.46519999999998
aasg702
(lp1618
S'HW:OW:HW'
p1619
asg690
g1395
sg1160
(lp1620
g1162
ag1163
asg1164
(lp1621
g1166
ag1167
aS'atom3'
p1622
aS'atom4'
p1623
ag1168
ag24
asbsbsS'ljParameters14'
p1624
g1
(g699
tRp1625
(dp1626
g702
(lp1627
g30
ag31
asg690
S'1-4 Lennard-Jones'
p1628
sg705
(lp1629
F0
aF0.31819320000000006
asg707
I2
sg708
(lp1630
F0
aF3.1506099999999999
asg710
g711
sbsS'exclusions'
p1631
g1
(g683
tRp1632
(dp1633
S'items'
p1634
(lp1635
I1
aI0
aI2
aI0
aI2
aI1
aI4
aI3
aI5
aI3
aI5
aI4
aI7
aI6
aI8
aI6
aI8
aI7
aI10
aI9
aI11
aI9
aI11
aI10
aI13
aI12
aI14
aI12
aI14
aI13
aI16
aI15
aI17
aI15
aI17
aI16
aI19
aI18
aI20
aI18
aI20
aI19
aI22
aI21
aI23
aI21
aI23
aI22
aI25
aI24
aI26
aI24
aI26
aI25
aI28
aI27
aI29
aI27
aI29
aI28
aI31
aI30
aI32
aI30
aI32
aI31
aI34
aI33
aI35
aI33
aI35
aI34
aI37
aI36
aI38
aI36
aI38
aI37
aI40
aI39
aI41
aI39
aI41
aI40
aI43
aI42
aI44
aI42
aI44
aI43
aI46
aI45
aI47
aI45
aI47
aI46
aI49
aI48
aI50
aI48
aI50
aI49
aI52
aI51
aI53
aI51
aI53
aI52
aI55
aI54
aI56
aI54
aI56
aI55
aI58
aI57
aI59
aI57
aI59
aI58
aI61
aI60
aI62
aI60
aI62
aI61
aI64
aI63
aI65
aI63
aI65
aI64
aI67
aI66
aI68
aI66
aI68
aI67
aI70
aI69
aI71
aI69
aI71
aI70
aI73
aI72
aI74
aI72
aI74
aI73
aI76
aI75
aI77
aI75
aI77
aI76
aI79
aI78
aI80
aI78
aI80
aI79
aI82
aI81
aI83
aI81
aI83
aI82
aI85
aI84
aI86
aI84
aI86
aI85
aI88
aI87
aI89
aI87
aI89
aI88
aI91
aI90
aI92
aI90
aI92
aI91
aI94
aI93
aI95
aI93
aI95
aI94
aI97
aI96
aI98
aI96
aI98
aI97
aI100
aI99
aI101
aI99
aI101
aI100
aI103
aI102
aI104
aI102
aI104
aI103
aI106
aI105
aI107
aI105
aI107
aI106
aI109
aI108
aI110
aI108
aI110
aI109
aI112
aI111
aI113
aI111
aI113
aI112
aI115
aI114
aI116
aI114
aI116
aI115
aI118
aI117
aI119
aI117
aI119
aI118
aI121
aI120
aI122
aI120
aI122
aI121
aI124
aI123
aI125
aI123
aI125
aI124
aI127
aI126
aI128
aI126
aI128
aI127
aI130
aI129
aI131
aI129
aI131
aI130
aI133
aI132
aI134
aI132
aI134
aI133
aI136
aI135
aI137
aI135
aI137
aI136
aI139
aI138
aI140
aI138
aI140
aI139
aI142
aI141
aI143
aI141
aI143
aI142
aI145
aI144
aI146
aI144
aI146
aI145
aI148
aI147
aI149
aI147
aI149
aI148
aI151
aI150
aI152
aI150
aI152
aI151
aI154
aI153
aI155
aI153
aI155
aI154
aI157
aI156
aI158
aI156
aI158
aI157
aI160
aI159
aI161
aI159
aI161
aI160
aI163
aI162
aI164
aI162
aI164
aI163
aI166
aI165
aI167
aI165
aI167
aI166
aI169
aI168
aI170
aI168
aI170
aI169
aI172
aI171
aI173
aI171
aI173
aI172
aI175
aI174
aI176
aI174
aI176
aI175
aI178
aI177
aI179
aI177
aI179
aI178
aI181
aI180
aI182
aI180
aI182
aI181
aI184
aI183
aI185
aI183
aI185
aI184
aI187
aI186
aI188
aI186
aI188
aI187
aI190
aI189
aI191
aI189
aI191
aI190
aI193
aI192
aI194
aI192
aI194
aI193
aI196
aI195
aI197
aI195
aI197
aI196
aI199
aI198
aI200
aI198
aI200
aI199
aI202
aI201
aI203
aI201
aI203
aI202
aI205
aI204
aI206
aI204
aI206
aI205
aI208
aI207
aI209
aI207
aI209
aI208
aI211
aI210
aI212
aI210
aI212
aI211
aI214
aI213
aI215
aI213
aI215
aI214
aI217
aI216
aI218
aI216
aI218
aI217
aI220
aI219
aI221
aI219
aI221
aI220
aI223
aI222
aI224
aI222
aI224
aI223
aI226
aI225
aI227
aI225
aI227
aI226
aI229
aI228
aI230
aI228
aI230
aI229
aI232
aI231
aI233
aI231
aI233
aI232
aI235
aI234
aI236
aI234
aI236
aI235
aI238
aI237
aI239
aI237
aI239
aI238
aI241
aI240
aI242
aI240
aI242
aI241
aI244
aI243
aI245
aI243
aI245
aI244
aI247
aI246
aI248
aI246
aI248
aI247
aI250
aI249
aI251
aI249
aI251
aI250
aI253
aI252
aI254
aI252
aI254
aI253
aI256
aI255
aI257
aI255
aI257
aI256
aI259
aI258
aI260
aI258
aI260
aI259
aI262
aI261
aI263
aI261
aI263
aI262
aI265
aI264
aI266
aI264
aI266
aI265
aI268
aI267
aI269
aI267
aI269
aI268
aI271
aI270
aI272
aI270
aI272
aI271
aI274
aI273
aI275
aI273
aI275
aI274
aI277
aI276
aI278
aI276
aI278
aI277
aI280
aI279
aI281
aI279
aI281
aI280
aI283
aI282
aI284
aI282
aI284
aI283
aI286
aI285
aI287
aI285
aI287
aI286
aI289
aI288
aI290
aI288
aI290
aI289
aI292
aI291
aI293
aI291
aI293
aI292
aI295
aI294
aI296
aI294
aI296
aI295
aI298
aI297
aI299
aI297
aI299
aI298
aI301
aI300
aI302
aI300
aI302
aI301
aI304
aI303
aI305
aI303
aI305
aI304
aI307
aI306
aI308
aI306
aI308
aI307
aI310
aI309
aI311
aI309
aI311
aI310
aI313
aI312
aI314
aI312
aI314
aI313
aI316
aI315
aI317
aI315
aI317
aI316
aI319
aI318
aI320
aI318
aI320
aI319
aI322
aI321
aI323
aI321
aI323
aI322
aI325
aI324
aI326
aI324
aI326
aI325
aI328
aI327
aI329
aI327
aI329
aI328
aI331
aI330
aI332
aI330
aI332
aI331
aI334
aI333
aI335
aI333
aI335
aI334
aI337
aI336
aI338
aI336
aI338
aI337
aI340
aI339
aI341
aI339
aI341
aI340
aI343
aI342
aI344
aI342
aI344
aI343
aI346
aI345
aI347
aI345
aI347
aI346
aI349
aI348
aI350
aI348
aI350
aI349
aI352
aI351
aI353
aI351
aI353
aI352
aI355
aI354
aI356
aI354
aI356
aI355
aI358
aI357
aI359
aI357
aI359
aI358
aI361
aI360
aI362
aI360
aI362
aI361
aI364
aI363
aI365
aI363
aI365
aI364
aI367
aI366
aI368
aI366
aI368
aI367
aI370
aI369
aI371
aI369
aI371
aI370
aI373
aI372
aI374
aI372
aI374
aI373
aI376
aI375
aI377
aI375
aI377
aI376
aI379
aI378
aI380
aI378
aI380
aI379
aI382
aI381
aI383
aI381
aI383
aI382
aI385
aI384
aI386
aI384
aI386
aI385
aI388
aI387
aI389
aI387
aI389
aI388
aI391
aI390
aI392
aI390
aI392
aI391
aI394
aI393
aI395
aI393
aI395
aI394
aI397
aI396
aI398
aI396
aI398
aI397
aI400
aI399
aI401
aI399
aI401
aI400
aI403
aI402
aI404
aI402
aI404
aI403
aI406
aI405
aI407
aI405
aI407
aI406
aI409
aI408
aI410
aI408
aI410
aI409
aI412
aI411
aI413
aI411
aI413
aI412
aI415
aI414
aI416
aI414
aI416
aI415
aI418
aI417
aI419
aI417
aI419
aI418
aI421
aI420
aI422
aI420
aI422
aI421
aI424
aI423
aI425
aI423
aI425
aI424
aI427
aI426
aI428
aI426
aI428
aI427
aI430
aI429
aI431
aI429
aI431
aI430
aI433
aI432
aI434
aI432
aI434
aI433
aI436
aI435
aI437
aI435
aI437
aI436
aI439
aI438
aI440
aI438
aI440
aI439
aI442
aI441
aI443
aI441
aI443
aI442
aI445
aI444
aI446
aI444
aI446
aI445
aI448
aI447
aI449
aI447
aI449
aI448
aI451
aI450
aI452
aI450
aI452
aI451
aI454
aI453
aI455
aI453
aI455
aI454
aI457
aI456
aI458
aI456
aI458
aI457
aI460
aI459
aI461
aI459
aI461
aI460
aI463
aI462
aI464
aI462
aI464
aI463
aI466
aI465
aI467
aI465
aI467
aI466
aI469
aI468
aI470
aI468
aI470
aI469
aI472
aI471
aI473
aI471
aI473
aI472
aI475
aI474
aI476
aI474
aI476
aI475
aI478
aI477
aI479
aI477
aI479
aI478
aI481
aI480
aI482
aI480
aI482
aI481
aI484
aI483
aI485
aI483
aI485
aI484
aI487
aI486
aI488
aI486
aI488
aI487
aI490
aI489
aI491
aI489
aI491
aI490
aI493
aI492
aI494
aI492
aI494
aI493
aI496
aI495
aI497
aI495
aI497
aI496
aI499
aI498
aI500
aI498
aI500
aI499
aI502
aI501
aI503
aI501
aI503
aI502
aI505
aI504
aI506
aI504
aI506
aI505
aI508
aI507
aI509
aI507
aI509
aI508
aI511
aI510
aI512
aI510
aI512
aI511
aI514
aI513
aI515
aI513
aI515
aI514
aI517
aI516
aI518
aI516
aI518
aI517
aI520
aI519
aI521
aI519
aI521
aI520
aI523
aI522
aI524
aI522
aI524
aI523
aI526
aI525
aI527
aI525
aI527
aI526
aI529
aI528
aI530
aI528
aI530
aI529
aI532
aI531
aI533
aI531
aI533
aI532
aI535
aI534
aI536
aI534
aI536
aI535
aI538
aI537
aI539
aI537
aI539
aI538
aI541
aI540
aI542
aI540
aI542
aI541
aI544
aI543
aI545
aI543
aI545
aI544
aI547
aI546
aI548
aI546
aI548
aI547
aI550
aI549
aI551
aI549
aI551
aI550
aI553
aI552
aI554
aI552
aI554
aI553
aI556
aI555
aI557
aI555
aI557
aI556
aI559
aI558
aI560
aI558
aI560
aI559
aI562
aI561
aI563
aI561
aI563
aI562
aI565
aI564
aI566
aI564
aI566
aI565
aI568
aI567
aI569
aI567
aI569
aI568
aI571
aI570
aI572
aI570
aI572
aI571
aI574
aI573
aI575
aI573
aI575
aI574
aI577
aI576
aI578
aI576
aI578
aI577
aI580
aI579
aI581
aI579
aI581
aI580
aI583
aI582
aI584
aI582
aI584
aI583
aI586
aI585
aI587
aI585
aI587
aI586
aI589
aI588
aI590
aI588
aI590
aI589
aI592
aI591
aI593
aI591
aI593
aI592
aI595
aI594
aI596
aI594
aI596
aI595
aI598
aI597
aI599
aI597
aI599
aI598
aI601
aI600
aI602
aI600
aI602
aI601
aI604
aI603
aI605
aI603
aI605
aI604
aI607
aI606
aI608
aI606
aI608
aI607
aI610
aI609
aI611
aI609
aI611
aI610
aI613
aI612
aI614
aI612
aI614
aI613
aI616
aI615
aI617
aI615
aI617
aI616
aI619
aI618
aI620
aI618
aI620
aI619
aI622
aI621
aI623
aI621
aI623
aI622
aI625
aI624
aI626
aI624
aI626
aI625
aI628
aI627
aI629
aI627
aI629
aI628
aI631
aI630
aI632
aI630
aI632
aI631
aI634
aI633
aI635
aI633
aI635
aI634
aI637
aI636
aI638
aI636
aI638
aI637
aI640
aI639
aI641
aI639
aI641
aI640
aI643
aI642
aI644
aI642
aI644
aI643
aI646
aI645
aI647
aI645
aI647
aI646
asS'shape'
p1636
(lp1637
I648
aI2
asg690
S'Exclusions'
p1638
sbsbsS'configuration'
p1639
g1
(cpMolecule.Configuration
Configuration
p1640
tRp1641
(dp1642
S'coordinates3'
p1643
g1
(cpCore.Coordinates3
Coordinates3
p1644
tRp1645
(dp1646
g1634
(lp1647
F-8.9992551747224461
aF7.6972357517925394
aF-5.3321310145337986
aF-9.010943916648781
aF8.6416457204937487
aF-5.4149149763253028
aF-8.8709966583597719
aF7.3818502138273843
aF-6.2169935549449367
aF-5.7446024058376324
aF-5.875910351955338
aF-0.174228686994257
aF-5.281899075740764
aF-5.9979268072892644
aF-0.99271363673065105
aF-5.4602345809794972
aF-6.5979887600362934
aF0.37041588772281497
aF8.6428026647995395
aF-7.3649073707307036
aF0.12941165379054001
aF8.4511423835171069
aF-6.7556376572859804
aF-0.57127140784124297
aF9.3223755693904344
aF-6.9398709711224891
aF0.63579562505533505
aF-7.0733427782851646
aF-8.8886866709690171
aF-2.19201075905216
aF-7.0933605184511288
aF-9.8073801255152677
aF-2.425466593531719
aF-7.8132801890750319
aF-8.774256816324403
aF-1.6103764783571941
aF-5.4307246394303643
aF-3.622542850037846
aF2.8910027143962971
aF-5.9352192284980134
aF-3.3013494538621
aF2.1553261469738541
aF-4.7771181890217846
aF-2.9526762204710191
aF3.0425853868133448
aF-8.5009476350667441
aF-8.2363120916058179
aF-8.7786775109738819
aF-8.6380472510965589
aF-7.9110071017930332
aF-7.8987454915045987
aF-9.2598050371079665
aF-8.7769606357951062
aF-8.9539903599989401
aF-6.1305564294522554
aF-3.169352967349544
aF-4.4111526686194757
aF-5.3647543285080577
aF-3.7282194850698192
aF-4.4218931323256179
aF-6.0473488125966286
aF-2.66612606842487
aF-3.611941069169232
aF9.0710686990064033
aF-5.6766596553059747
aF-2.034521290830849
aF9.4057592395576499
aF-6.3098598836693771
aF-2.655761753828918
aF8.3250937326535794
aF-5.2862370814104613
aF-2.4704015075964749
aF-6.0716195345164872
aF-3.2216154940797921
aF0.089613231972758001
aF-5.8898246264191956
aF-4.1506966099144913
aF0.038048790841507002
aF-6.7266698696954181
aF-3.0693407722321981
aF-0.57868420739702298
aF-7.3035536777458301
aF7.973915660872926
aF0.34292458888143601
aF-6.9439357570507756
aF7.4060620503124079
aF-0.32574366076730099
aF-8.1691874148765997
aF8.1963990203288848
aF0.026571324466249002
aF-9.0964789646016992
aF-3.679304932320981
aF2.0880048510938272
aF-9.4763438568153351
aF-3.2967919137052601
aF1.3080776402253571
aF-8.6926577601154822
aF-4.4826477939212142
aF1.7872247295378929
aF9.1181783357953616
aF-0.023785076047556
aF-8.3431396467123342
aF9.0465755782131225
aF-0.79719049554904897
aF-7.7994328303192608
aF8.6270088473318243
aF-0.23617525775143
aF-9.1257908744748786
aF7.6872793102610801
aF-4.0285046097728623
aF-4.8861781921137712
aF6.7687160521933043
aF-4.2495752712174406
aF-4.965357126031372
aF7.6924862254794402
aF-3.1065115784411388
aF-4.6652670375525451
aF6.2740563260060709
aF-2.900455642264824
aF-0.99732422863100001
aF6.0571112136049994
aF-3.7638398925925531
aF-1.3235181195783641
aF5.5851528490264402
aF-2.3400346724451788
aF-1.329348830116748
aF6.8726965458162166
aF0.90734374834147802
aF-3.279264776521079
aF7.495483993254509
aF1.3264532954236641
aF-3.858387373954336
aF6.8324470670547841
aF1.4752531386036609
aF-2.5211362228368208
aF-8.7259341117335172
aF-2.923212256063938
aF4.9942101266615166
aF-8.6946586809641602
aF-1.977896015994218
aF4.9286429573573853
aF-8.6834912169057077
aF-3.22604193095103
aF4.0967733385330218
aF-8.94614655285441
aF-0.22928933571631899
aF4.278868526375037
aF-8.4571998694537491
aF0.26098548765427798
aF4.9265271852073882
aF-9.8368720806973382
aF0.083858263569694003
aF4.3651622985157221
aF-5.2412249270396938
aF1.2593464871685911
aF-8.9186306545891547
aF-5.4058827671978307
aF0.62665319879760595
aF-8.2319815458555023
aF-5.2781805224385474
aF0.75556767531667202
aF-9.7209654928566849
aF-5.863286542579905
aF4.2125876430921494
aF-9.1704944157299746
aF-6.0233793811703693
aF3.867163106436919
aF-10.038798609263944
aF-5.5289466858064049
aF3.47454610612649
aF-8.6781413413149764
aF-8.2780484686052009
aF0.13341458490036401
aF-3.8073087466216791
aF-8.0433734397036112
aF0.91245652182548898
aF-4.2940543591566049
aF-8.4242493011165571
aF0.44023289467552001
aF-2.922216750634981
aF-8.692229861313054
aF1.5353427003225679
aF-1.3542592938748881
aF-9.5379800323191137
aF1.962681512265668
aF-1.3856947523615011
aF-8.7378456467388599
aF0.97197058292161298
aF-0.59305560401581403
aF-3.1571088620427989
aF2.4856904134963038
aF1.7275678248331829
aF-2.7107361639885452
aF1.9294429456625011
aF2.352259884139368
aF-3.157285349334813
aF1.986674516811924
aF0.92141454926551702
aF6.6890281069892303
aF6.3099800713389254
aF4.1598469249137384
aF7.5532944792294723
aF6.5536658256494356
aF3.855608710744634
aF6.2519576014358167
aF7.1354428821757043
aF4.3225752909127637
aF8.8119982211827512
aF4.4881547896557432
aF-9.2282831903599689
aF9.5688823119651936
aF4.3482609115890281
aF-8.6746983495272438
aF8.1642364033256456
aF4.8741143349797076
aF-8.6535311945394984
aF4.7538594762421376
aF0.27261994579174198
aF-8.7648830164609919
aF5.4469195842326679
aF-0.36073703454800898
aF-8.632873084384082
aF4.1238090592867778
aF-0.17439758047126699
aF-9.3145299970840174
aF-7.0398312433414434
aF7.1992950250177543
aF-3.2607168219997429
aF-7.6245261594687728
aF7.3613410938681199
aF-3.9892584657133918
aF-7.5272700139342739
aF6.6225035766955447
aF-2.687467251511185
aF-8.5511573679164012
aF5.5017212170399574
aF-1.6630199722209349
aF-9.047592731152017
aF5.1036512595790997
aF-0.96017415762412905
aF-7.8002113093559631
aF4.934044492750826
aF-1.775816930659059
aF-7.6204126080178431
aF2.618238736475988
aF-4.5225074429448808
aF-7.0487868230923922
aF3.019029720102274
aF-3.881016562688425
aF-7.5921338654703474
aF3.2049498121478019
aF-5.2667321579361559
aF-9.1145050929639293
aF-6.9937308382635379
aF5.9311207355141384
aF-9.4910809597101178
aF-6.9369112700663669
aF6.7993730912577099
aF-8.7762575813987276
aF-7.8776813761140119
aF5.875263170638644
aF7.5857537402959014
aF2.3014492012357781
aF-7.3010522062337584
aF8.1380567406649948
aF1.589848325487246
aF-7.596831836054954
aF7.972522554208787
aF2.5784953298473319
aF-6.4809574999919466
aF8.0894684998200095
aF3.2024836879915561
aF-4.6527639687982081
aF9.0200818431371612
aF3.117147176199901
aF-4.492837470070719
aF7.9050860374773384
aF4.1204739758907447
aF-4.5037775972631628
aF8.9635819598052944
aF8.6020728897183609
aF-1.2417961612763631
aF8.1129147024885118
aF8.337159687374756
aF-1.5659661977589669
aF8.8335187712873378
aF8.7356883903521698
aF-0.31220998184867998
aF6.6721484289189288
aF4.2807491407458684
aF2.2127579564142299
aF5.8211390283666233
aF4.670895205726576
aF2.0628611647489121
aF6.8750195048421094
aF4.4903366604668831
aF3.114875686054333
aF-8.8802413384659253
aF6.7312055111484783
aF3.3154515227071362
aF-8.5486900761806286
aF5.8518129646038881
aF3.190381504082449
aF-9.0857659160626163
aF7.0351624191207556
aF2.4412262393278201
aF9.0984688560910456
aF9.1397796437195193
aF6.9755969742660904
aF8.3063150693555876
aF8.8383459840118519
aF7.4004853442597263
aF9.4676459349493083
aF8.361464505405797
aF6.5795744623840884
aF8.1404934383976872
aF3.7464014717677081
aF5.2574452380843582
aF8.7429999258229287
aF3.8343376212250782
aF4.5307037667005243
aF8.3479223300740912
aF4.4741826441440233
aF5.8285912964900346
aF9.0298840241747005
aF-4.9220984422975516
aF-7.006933468554907
aF8.6419293301166338
aF-4.621338553537746
aF-6.1958017624359876
aF9.8892159365840193
aF-5.2361056805776611
aF-6.7582406487499194
aF-3.2488883804207438
aF6.9463657482101313
aF-7.8410663339894011
aF-2.5234856694020258
aF6.7913882071750873
aF-7.2505810516822544
aF-3.2762762186990599
aF6.175677058243215
aF-8.3925995147422707
aF-4.376438498123342
aF7.0025656200465107
aF-3.539057287910933
aF-5.3056286506122374
aF7.1630675449890902
aF-3.4403415717995052
aF-4.0501833445826696
aF7.7651293635315959
aF-3.998354699083841
aF-7.8477867991973893
aF-6.5314429712213409
aF1.504021574728367
aF-7.4149139195533618
aF-7.064103495634984
aF2.1580810795136669
aF-7.1424380087354864
aF-6.0817798527327849
aF1.0577188034340079
aF-5.8713005178174562
aF-7.2651930309521857
aF3.5836768185502712
aF-4.9304761420450722
aF-7.2434830963114178
aF3.4684458648513639
aF-6.0624263110869459
aF-6.51223144426673
aF4.1272021446605294
aF-9.0707433662909622
aF-5.8591746340990571
aF8.5619118449136167
aF-9.1756434261014803
aF-6.2562729279223346
aF9.4164344733410204
aF-8.1411995159772399
aF-5.917177972347095
aF8.3844749741792164
aF-3.835849420222861
aF-4.3916614229258037
aF-5.3634014223201083
aF-3.100624615791296
aF-4.7507109781975556
aF-4.8844150928620609
aF-3.671097728928693
aF-3.458324883487419
aF-5.3886953813794758
aF-4.2124935744362464
aF-6.3585460726046303
aF-2.556232818188847
aF-4.2881805123320671
aF-7.1987957657179118
aF-2.9888434290792758
aF-3.4189437550361839
aF-5.9788837658470637
aF-2.9098360095738851
aF-2.6942373010934708
aF0.28362545758686503
aF-0.00065820676407099999
aF-2.4463956301698908
aF-0.59906109653194695
aF0.240876373227358
aF-3.3554003102639962
aF0.17077126659884001
aF-0.67075327978059596
aF-1.7385596780054411
aF-5.0852829926226146
aF-3.2595012109855608
aF-1.1807118296877761
aF-5.5138604475288329
aF-2.6238699159147418
aF-1.875242913645359
aF-4.215182499720675
aF-2.9085840906468698
aF-3.095157189201279
aF-6.9922001199761468
aF3.5666872404362322
aF-3.4021455392960611
aF-6.8621502776055276
aF4.4542373468558187
aF-2.6515401985097831
aF-6.1836220363638059
aF3.3469022357804379
aF-6.239353236701791
aF-5.5696798705139283
aF7.8478623657309106
aF-6.4050253632091296
aF-6.4840744646933492
aF7.6598855782438076
aF-6.4716765541814487
aF-5.1159776844353626
aF7.048437445864927
aF-6.738299917125536
aF-1.928037081209977
aF-8.7527228036537252
aF-7.1081949569723806
aF-1.7933917344945229
aF-7.8901984329229533
aF-7.4219495349947584
aF-2.369557673072515
aF-9.2391205492782209
aF-5.1571193576232304
aF-0.33892115525355998
aF-1.390036654839548
aF-5.1881600124478373
aF0.348546558312746
aF-2.042205820433844
aF-5.9248882162310181
aF-0.867341693453758
aF-1.5638259369034231
aF-0.088489101856227007
aF2.1161635050316852
aF-0.095110449334357
aF0.52518400100465501
aF1.592062422160589
aF-0.59272815175098503
aF-0.86705467506273304
aF1.57850540534252
aF-0.034617341824333001
aF-2.371477334608449
aF0.975459078191938
aF3.7393123162373518
aF-1.6650677721996789
aF0.58592678711491697
aF4.2374590058235793
aF-2.751146309374584
aF1.6168053676457319
aF4.3253382598642958
aF-5.8701190320236636
aF-0.58783478615463303
aF7.6360699635615941
aF-6.5929118502546533
aF-0.23914998337421101
aF7.1312041890990816
aF-6.2713990165531994
aF-1.208974089619995
aF8.2294166916275238
aF-7.7834898460043682
aF0.930091495492406
aF6.4067405748677704
aF-8.5156100762648919
aF1.0509541060670411
aF6.9969034318897982
aF-7.4611975160194488
aF1.8067404681596939
aF6.2439086592178246
aF-6.840275837915212
aF6.67578404939474
aF7.9199726658149494
aF-6.3811631554473314
aF6.0444886650273606
aF8.4581006082910211
aF-6.1675378037303288
aF7.05341525396714
aF7.3688663142871711
aF-7.6957126458268927
aF4.5722103680315218
aF-6.677279657131975
aF-7.0801087810767083
aF4.8462707041402338
aF-7.3442300405014356
aF-7.9074800911104859
aF5.3676773025681674
aF-6.2068682359516387
aF-3.030970357987226
aF4.57183237360388
aF-3.06671407041219
aF-2.373764267177715
aF4.6326397412046756
aF-2.3860653958022251
aF-3.4746070637078081
aF5.4094665369369768
aF-3.0453720518887928
aF-3.7166996698784809
aF5.0614103687616412
aF1.3539189843629249
aF-3.3553257172551731
aF5.5073076923350026
aF2.108560914814368
aF-3.7862170645271092
aF4.1550038798566211
aF1.623167213163226
aF-2.9086869784834111
aF3.875857020884228
aF5.1740076780352942
aF-2.5363700597715608
aF4.5592715208691548
aF4.6325053851027089
aF-3.7140274659568688
aF4.2483907846461921
aF5.5079916508443798
aF-3.3496482719375509
aF0.27758307240348401
aF6.9685937719995694
aF-3.9516965046979222
aF-0.17618452892751099
aF7.5435136702570773
aF-3.5970816154300849
aF-0.000603441501752
aF6.0966482438790877
aF-2.8860133871665372
aF2.2670403713517948
aF9.0431236876501142
aF-2.7559586287993851
aF1.7114320153481719
aF8.2859677495733273
aF-3.6924029710522781
aF1.9551003323072831
aF9.432134292957306
aF-5.6607851253487871
aF4.6361729261734679
aF-4.0531939090540954
aF-4.8944049348111944
aF4.1409835202031173
aF-3.7956111926962399
aF-5.3559744992840246
aF5.531728495486397
aF-4.116207435463676
aF-5.6626990450024071
aF5.8717756486902566
aF-0.519798792417688
aF-4.921379812001863
aF5.614324776137174
aF0.012239592480530999
aF-6.0408319524619891
aF5.0535665860166734
aF-0.813821638562231
aF-2.9237568018544819
aF7.1520318912026672
aF3.2063966534847319
aF-2.1224950361508781
aF7.2449769840371587
aF3.7046343402764612
aF-3.117726484586739
aF8.0284107489191623
aF2.901051177133386
aF-5.1118478612906726
aF5.4299970172215586
aF5.2208041229069382
aF-5.1442470221907257
aF5.5620736097354424
aF4.2825045608890893
aF-4.8491013964559144
aF6.2709353196535886
aF5.5710712591323386
aF1.8307405592435979
aF3.0072903683397518
aF3.40946536240528
aF2.1469082262356389
aF2.518223143046908
aF2.661300102925046
aF1.2150594515243951
aF3.6293146701423371
aF3.0448799244561
aF-3.4187625175471181
aF-7.1460800570121759
aF-7.6820215099972584
aF-3.712730770131301
aF-6.2829963949737904
aF-7.9419623855727153
aF-4.0298897598877446
aF-7.7409454343514454
aF-8.0962179326183179
aF-3.9804664751778081
aF8.3684301515107897
aF-0.99034330465124498
aF-3.9758987744658771
aF7.7466116949452033
aF-1.7060394295426511
aF-4.4806915973665031
aF7.9419785212362886
aF-0.30710554649711802
aF-6.1425882832256473
aF2.6178629871110668
aF2.0251176374141582
aF-6.2621974786696768
aF1.6784398240819061
aF1.9795351722607819
aF-5.2412117864738308
aF2.7306041342470722
aF2.2966132079964279
aF-5.9251956010865543
aF5.977077085099527
aF2.629952874691587
aF-6.4474387518440848
aF6.5815916246834396
aF2.1193412190093941
aF-5.3695127128545677
aF5.5460294638441141
aF1.9940955983031119
aF3.501828693824462
aF8.4751857785305766
aF5.4825942125321241
aF3.181757588744853
aF7.9002439276702061
aF6.165160220931508
aF3.420883660887394
aF7.9676509067980188
aF4.6858782935131824
aF-8.7163253793704243
aF7.2518174014391414
aF-7.8234178714362246
aF-9.4599147010967197
aF7.482642975892186
aF-8.3644303248908525
aF-7.9939662317496518
aF7.1721807296117026
aF-8.4323146298022866
aF-4.4520572239997147
aF-4.7469501182176703
aF-8.6375513504347001
aF-5.09768918131814
aF-5.069466364775459
aF-9.2524030775977195
aF-4.9614229502192213
aF-4.3965198687391371
aF-7.9187709964994859
aF-1.2302288886485579
aF-7.4962590691478299
aF-6.098061623167526
aF-2.0094089521539149
aF-7.5956328440767296
aF-6.6290072715084696
aF-0.80699514657275595
aF-6.7192748644040536
aF-6.4387502568892714
aF-1.625998098934075
aF9.0695707935282712
aF-2.0489644058224781
aF-2.4689714569283638
aF9.2419509850835038
aF-1.6507421220774341
aF-1.667678792686125
aF9.5014947652869957
aF-2.8919379536805629
aF-0.103101960283791
aF-8.773056413391263
aF2.58496868163627
aF-0.94263772804272905
aF-8.9731306456214277
aF2.1924766482764211
aF-0.25373715492428001
aF-8.8421785317289405
aF3.5184734598201
aF-1.2999592655248551
aF-6.3801019068541827
aF6.1209049728878284
aF-2.0665162436089202
aF-6.1487284002702491
aF6.6286024219671056
aF-1.5445811095708979
aF-6.1979419580218993
aF5.2231979458144417
aF-5.1108365806210339
aF-8.9426193384178809
aF-9.1567730006973242
aF-5.6844382281145727
aF-9.6662791932467389
aF-8.9418368136516158
aF-5.518034976935386
aF-8.5302914597370822
aF-9.9071563603886919
aF3.5624002748135202
aF-2.6715796388970721
aF-7.0754048680445747
aF3.1444298187823629
aF-3.1102820000531608
aF-7.8046105565859749
aF2.924562837409181
aF-2.0337376971498631
aF-6.7834784033421593
aF0.57542404364922195
aF-4.2458186713065338
aF-4.6729876534387964
aF-0.32638844344073298
aF-4.5332896308526598
aF-4.7277113735810428
aF0.56569123996491599
aF-3.5517005480078829
aF-4.0272281754280002
aF-7.4720365826911106
aF-1.7426342479042289
aF-1.943203006142167
aF-7.9266938577644099
aF-1.30709946354572
aF-2.652072679521305
aF-8.1380895707801635
aF-2.2680492306861928
aF-1.5198680171253789
aF-0.85005776607852501
aF-6.4188816480388828
aF0.35526316192032298
aF-1.0059256153261249
aF-6.0351111457164137
aF1.2080969177708041
aF-0.84631986275146798
aF-7.3539948496851197
aF0.511625971391241
aF-2.4141445853995829
aF-4.3143440836388676
aF7.6435354452414961
aF-1.8044875979958981
aF-3.5882475061233552
aF7.6449907218903794
aF-2.9400779414640361
aF-4.1857023689836304
aF8.4218319274572142
aF1.2088498432634771
aF-5.4033542662062501
aF5.5026605747151507
aF0.42725130418463603
aF-5.907968737871351
aF5.6853295613987376
aF1.8989399630563619
aF-6.0496641032181104
aF5.4322388369785699
aF-1.7716229455717429
aF-2.266722062900163
aF-8.5513472149223855
aF-1.1482801835770771
aF-2.8823532343777498
aF-8.9137586686237658
aF-1.2390397930483379
aF-1.5577406024820279
aF-8.2157872732850805
aF0.87351983027792701
aF-3.6588099167568342
aF-8.8865204667310369
aF1.7534644091935421
aF-4.0006647640416517
aF-8.974456815443304
aF0.49647959673946401
aF-4.1522226153532138
aF-8.1700816548587447
aF0.71055990031463001
aF-1.94738952215573
aF-3.0078624786174371
aF0.37849692687862202
aF-2.5142145879246511
aF-2.3242371963985411
aF0.041395251521568997
aF-1.284126472156456
aF-3.1136963073835591
aF-3.348742021277523
aF-2.2425221347503448
aF0.183556773757342
aF-4.2551115959896118
aF-2.2799390765183101
aF-0.092113620926159004
aF-3.3502443312926462
aF-2.6081796111742941
aF1.058309511963887
aF-3.300037354282638
aF-1.750731193450642
aF3.546908751407885
aF-3.18341927948895
aF-0.94989264399957596
aF3.0529878646816022
aF-2.7673259229632712
aF-1.6324488053184329
aF4.3222330755454266
aF-1.5162254047770261
aF-1.291657022972825
aF5.6830579093068456
aF-1.450200315365894
aF-0.56647307835680205
aF6.2902225772836573
aF-0.84260218755483496
aF-1.8979372233228331
aF5.9615468316766957
aF-3.118699087552534
aF-0.22781065505779499
aF-5.5558047415769662
aF-2.6481539907220148
aF0.51038645879495903
aF-5.919882113777132
aF-3.2087513799659741
aF-0.83363291522782401
aF-6.2795242823616251
aF-4.9842324434383656
aF0.91774962891551504
aF-3.9146943820604951
aF-5.2301565436156796
aF1.7513270708945969
aF-4.2936006833746259
aF-4.6393855943139437
aF0.41743147224807498
aF-4.6424734644459349
aF3.2206689432491529
aF3.9272870720012731
aF-0.97194701352077395
aF3.1775417452108492
aF3.1014646133279231
aF-1.4356897348005999
aF2.7039686517117789
aF4.5233869873700856
aF-1.4978611696550681
aF-0.23301531307620199
aF4.1383181501271853
aF1.871964776250046
aF-0.047748180857028998
aF3.368113052825803
aF1.351042327309518
aF-0.990298506756777
aF4.530135637435138
aF1.457355054694244
aF-4.9898123465625757
aF8.082777588376814
aF6.4701780341859054
aF-5.3073543423013154
aF8.2753596357393739
aF5.5978367959219444
aF-4.1894146579672276
aF8.5848473945087225
aF6.5488510909580011
aF-2.5331790980130049
aF4.8911561531096002
aF9.0493400190300672
aF-2.8755967288266788
aF4.0518925138723114
aF8.7713351450402772
aF-1.783082908329072
aF4.6761323597633124
aF9.5878755095193124
aF-0.69813728133146202
aF4.144956633271458
aF-7.5972169559536891
aF-0.79266649105780296
aF3.3322327989234179
aF-7.11821361818747
aF-0.90462395170071896
aF4.8201230983587484
aF-6.9644346083955142
aF-1.0879468343146319
aF5.8034867049949694
aF-5.6606520265724516
aF-1.726306367328607
aF5.7698419065045936
aF-4.9604626706516868
aF-0.39687407592439899
aF6.3601204847899213
aF-5.3267698949719522
aF-1.0104647388708961
aF7.9549749052727652
aF0.099136797071624996
aF-1.6436769647861349
aF8.4353389957593379
aF0.61604357543927302
aF-1.1655651337906161
aF8.2388479020812149
aF-0.79207585385896595
aF-6.7469533335043117
aF3.4250732160870689
aF-0.64082800446574495
aF-7.3814050142818326
aF2.7332467920417201
aF-0.77404686105596698
aF-6.2587345830628731
aF3.1564531383988519
aF0.12623503439101799
aF-0.097797362347262995
aF9.4528746527915679
aF5.5510784133081073
aF0.45414697259008802
aF8.7073831053172857
aF5.3548647446330211
aF-0.67476015302273495
aF9.1479698061728687
aF6.2388625165587799
aF0.29458565258383301
aF1.8819580061701591
aF9.0814124655975359
aF-0.044495105343031999
aF1.8289601007499909
aF8.1976050987891664
aF-0.034790526248978
aF2.7063880434778258
aF9.4141683016129534
aF0.67045745801082601
aF7.8289366647580163
aF-4.7106261457294316
aF1.1386597516935659
aF7.9588746496393492
aF-3.8964991702058169
aF0.79170288634644903
aF8.6394048461014368
aF-5.1874289069814994
aF1.763472199273092
aF-9.3735630857238359
aF-9.2782683108229378
aF1.005305405194902
aF-8.8694407043005281
aF-9.5427370933005395
aF1.739948822308496
aF-9.3602583520884348
aF-8.3305501909164583
aF-3.1372342010239498
aF-8.8497638205217459
aF1.6471665773872171
aF-3.9859515381585759
aF-8.8442504272034501
aF1.224616599111056
aF-3.2175135968558619
aF-8.2204186558008399
aF2.3517088985058359
aF-6.7185438823857924
aF8.9856961588578255
aF4.319530419650949
aF-6.543066790326475
aF9.8455890885292341
aF3.9607938315204581
aF-7.5663312067719737
aF8.7488269012319808
aF3.967323651683818
aF-6.788311882549249
aF-8.3744702023627156
aF7.4277299438165176
aF-6.5615427302432421
aF-8.9148135651181057
aF6.6824079986890874
aF-7.6838294116561396
aF-8.6110625944243981
aF7.6301463341624611
aF-1.5820097461524729
aF6.7274518850680556
aF7.1509789212004886
aF-2.1046498596053809
aF6.1686998457573372
aF7.7109284460471406
aF-0.80463367930304597
aF6.2178295886711998
aF6.9642396224311218
aF1.234816428150366
aF-6.3357319107284553
aF-7.8306437194332794
aF0.94385324550931204
aF-6.7422698715748499
aF-8.6362287942318474
aF2.1679793577682078
aF-6.5011759716639324
aF-7.8035289727405663
aF2.5612291261402809
aF-7.6355150213546956
aF-2.7330332699369881
aF3.249308150966197
aF-7.936334634070116
aF-3.3117860809023871
aF2.38281221225022
aF-8.3766261414042447
aF-2.169276484987261
aF-2.8263587035002051
aF-8.2220999483090491
aF-4.0174080491818698
aF-3.2902861801261301
aF-8.8649668218410547
aF-4.5374017792849957
aF-2.166541805646816
aF-7.8735057258059289
aF-4.6022359976800749
aF5.8021070081538566
aF9.1319583941968379
aF6.6697133560402024
aF4.9965325860927123
aF9.1133033537678045
aF6.1701116747105482
aF5.8165200855867383
aF8.3031959162824247
aF7.1299796033363148
aF-2.1324444773884972
aF8.9332387051413331
aF8.8160919929333019
aF-2.5907941871492319
aF8.676601233224007
aF9.605365552334705
aF-1.8679886105452921
aF8.1148466882014922
aF8.4170962522277151
aF-0.43690880378074298
aF-7.4372373403093004
aF8.6514915289801948
aF-1.2115885119185139
aF-7.9772504323292832
aF8.7360918259453708
aF-0.62769470052292498
aF-6.85866082745647
aF7.9250275172223592
aF-1.522793051507294
aF-0.20493691733007099
aF-3.4131093307703559
aF-2.2031405813967559
aF-0.190598272210317
aF-4.0732772198935976
aF-1.32236859897593
aF0.70855261071695397
aF-3.2573308952413411
aF-4.2020530992804437
aF-1.3583409659640431
aF-7.7876939700075472
aF-4.9563363266120426
aF-1.8092806392619361
aF-8.1435172744891062
aF-3.4582741225542599
aF-1.862974324702497
aF-8.0894190220474087
aF-0.74702556028793898
aF-5.4983046708413834
aF2.9534197552365131
aF-0.0075328204131429998
aF-5.8254571053946478
aF3.4484164948604379
aF-0.67268399449513105
aF-4.5547671092287993
aF3.009188935090684
aF-2.0315154115264731
aF-2.6727131153071562
aF-2.3449749531527191
aF-1.992645947640328
aF-1.769980372737642
aF-2.6321382521135939
aF-2.1191334573798919
aF-2.6195730931512111
aF-1.402425635564492
aF0.31372894650204503
aF-2.955359235532899
aF6.9031577088144429
aF0.25712366375811901
aF-3.6614812004952579
aF6.2730088275465556
aF0.714138616442199
aF-3.3490086535711492
aF7.6671028847901246
aF-3.8252101074556242
aF-5.0322543528231662
aF5.365217170815435
aF-3.547859501688102
aF-4.5735515731042131
aF6.1472455599154818
aF-4.3516284405369916
aF-4.4010729605971983
aF4.8925716496227274
aF1.7773160020331149
aF-0.79122749573777695
aF-5.7859275976267099
aF2.627344697559935
aF-0.554204347567126
aF-5.4392703547884569
aF1.226814717638679
aF-0.89048241384446403
aF-5.0204233212756977
aF4.5747578209349387
aF0.019176886766573999
aF-5.958506520880138
aF4.7502803392523987
aF0.30913462565801803
aF-6.8439535013484623
aF5.0818449173287652
aF-0.77622318069684604
aF-5.8631052140228386
aF0.37485412122647899
aF-4.6504294443054821
aF-1.2255966271029499
aF0.031961050391307998
aF-5.3573003625962681
aF-0.69488215881710003
aF1.2828036040375239
aF-4.5741919311605788
aF-0.96346006297536801
aF2.555199320212302
aF1.3489076966477449
aF1.463580435977287
aF2.4379079327964752
aF1.2750108559027331
aF0.52566680063237003
aF2.8865586606743849
aF0.50147979930192399
aF1.7299766564620549
aF1.842864645669098
aF-2.291482612853291
aF0.93814404646419303
aF2.2361617549088821
aF-2.919737869906843
aF0.34694804186997702
aF2.552360879012034
aF-1.7078097124278731
aF1.172325685755466
aF0.039038536531803003
aF-0.34535184310850298
aF-7.7917563403806653
aF0.55183364705319704
aF-0.49463425200834099
aF-7.0083943952886596
aF0.627558235678219
aF0.110740933941327
aF-8.3787179596024881
aF2.754272341802027
aF3.2983809004937701
aF-5.8663403687384896
aF2.4264010620587211
aF2.8162558593243969
aF-6.6139738809601516
aF3.3796210383165359
aF2.7126461447390202
aF-5.4604416083701812
aF-1.735566138323402
aF1.6779778682826449
aF-7.0873858343940066
aF-2.3068712279322958
aF1.782513627334295
aF-7.8367740980240734
aF-1.099127100392135
aF1.0307558788739251
aF-7.3611540710887189
aF-0.63855298002673599
aF2.4837144789211161
aF-2.87748540312678
aF-1.109317607394634
aF3.0414662099515781
aF-2.2723460207101098
aF-0.52728582519407596
aF3.0153637768419559
aF-3.6545752591123741
aF1.9669506091015521
aF6.0928499562588589
aF-2.3462796393658691
aF1.9302003281478279
aF6.9525700280568081
aF-1.948245953608529
aF2.6124788312137519
aF6.1765992191122123
aF-3.0356121973001171
aF3.9740221986026851
aF-1.06162565799099
aF1.9946614759679631
aF4.9209566464548606
aF-1.1086433583948789
aF1.996779805413579
aF3.7226178948971569
aF-1.2760323602142949
aF2.8833265659315659
aF-0.88306598036472395
aF2.5404424772972169
aF6.52797522690084
aF-0.22095387020120899
aF3.211149211492613
aF6.424727804270888
aF-1.7063511597159831
aF3.003422399931662
aF6.4458101205730181
aF1.4517186957071451
aF6.1334077324955336
aF-8.5383948386490154
aF1.212740456802035
aF6.8689329145281022
aF-7.9899496655225288
aF1.0963129183942431
aF5.3768703893725132
aF-8.0909152503849562
aF4.8748439798462302
aF7.6190949192903359
aF-7.2494429614833891
aF4.9774148580387019
aF7.1700080099264074
aF-8.0781166987194624
aF4.4175592506534143
aF6.9988677905591494
aF-6.6970762488432616
aF-0.65906214150294395
aF4.7346548806154587
aF-1.4951694557381301
aF-0.107569402911912
aF5.4622913397289734
aF-1.750709946952451
aF-0.085629087935452999
aF4.1622005245111691
aF-1.0028580266066269
aF6.2112956790862874
aF-3.6554014055959669
aF2.8582306482284099
aF5.7200611271866704
aF-4.0314874834137218
aF3.5766649716648611
aF6.5653336350870646
aF-4.4026806553953604
aF2.394408647316431
aF3.9257118106048492
aF4.9690984641317684
aF-8.5041755971570812
aF3.866509489467354
aF4.0482344558242298
aF-8.7219014876149394
aF3.0260203808134278
aF5.2674282072126664
aF-8.4828520056881533
aF0.84588023070319696
aF4.9362754322179194
aF6.862923463965986
aF1.6277713342896369
aF4.9233361449775108
aF6.3268461589268243
aF1.052847626382903
aF5.5303802611409374
aF7.5722216730260996
aF1.41502260603438
aF-8.6368276693195369
aF-5.7696562594397971
aF1.8302988866660479
aF-7.9303655392479593
aF-6.2464757950290233
aF0.60411757182774894
aF-8.2641640461742831
aF-5.4495705685966973
aF1.575009230705863
aF8.7752890140225759
aF-1.1157005393293971
aF1.8531713125434639
aF8.9530617462632378
aF-0.22692457661472101
aF0.64200738357819298
aF8.621255075851213
aF-1.0472819808254841
aF-5.7186444647414696
aF-8.5464444596875104
aF0.40888146160476302
aF-6.4425086967121334
aF-9.1338131330358454
aF0.58185144525071097
aF-5.3613912414068494
aF-8.8449985722614635
aF-0.41703353177059299
aF4.1905122374973516
aF4.5952892505029634
aF1.798028245986945
aF4.0204620619943681
aF3.6697673553026231
aF1.68230374851061
aF3.7873592292986871
aF5.0077464719017373
aF1.0455345965145419
aF6.9269188784956874
aF-9.4757415753407201
aF3.707707137777025
aF6.4732064824389983
aF-8.9017375189338477
aF3.1047441166116339
aF6.8099842268826389
aF-9.0702409989475505
aF4.5567039397715607
aF3.5163024212678669
aF-4.232362801892612
aF5.9632741753386922
aF4.1728823352264834
aF-4.9008333570105291
aF5.818533256707104
aF2.7044158896561581
aF-4.6295871020579753
aF5.6769996302852128
aF6.1950160329560164
aF-9.2082033646528938
aF-5.6571939465633632
aF6.6103370929070779
aF-8.5295381596695723
aF-6.1727731904300036
aF5.8106469129316913
aF-9.7924616217284939
aF-6.2973522618344084
aF2.3381838173365361
aF-8.9708145318457735
aF1.615110864108892
aF3.0247280742246541
aF-9.2317848020379589
aF2.2146536077141121
aF1.5366979663572979
aF-9.0735625232029005
aF2.1110577170600759
aF5.2675051686273866
aF-8.4310737167796859
aF0.37918237605041
aF5.5159715379469336
aF-7.8625421832710618
aF1.0960759237431821
aF5.5147129922363876
aF-7.9527646310315188
aF-0.401207725397068
aF3.1468074476918151
aF-5.9897374827687244
aF2.6655540304369141
aF3.0208464036723801
aF-6.4390064477828766
aF1.84021094270634
aF2.856056777535867
aF-5.1024656256635312
aF2.5008946869639721
aF2.8616853873945942
aF-6.7800367738922356
aF-0.079328632736482996
aF2.7070947210760101
aF-7.0231692306050357
aF-0.98259400591314106
aF3.120872019043603
aF-7.5877941289099642
aF0.34405103775936402
aF6.4041536460098847
aF-7.0757157596072986
aF7.6644117810885257
aF6.4475873915287378
aF-6.5906306843535454
aF6.8509586604256736
aF6.272988051076295
aF-7.9762227219997106
aF7.3983614148259056
aF5.1878354414221661
aF-4.9805534757560324
aF-5.875492899691916
aF4.3736032080427591
aF-4.9743518852161941
aF-5.3898104824677304
aF5.2420412284001952
aF-4.1161449119122473
aF-6.2611865182697031
aF3.0788962435041571
aF-5.240122991108672
aF-4.1264617730495567
aF2.2817494798156619
aF-4.7578182197480521
aF-4.302072549096069
aF2.7868718351131299
aF-6.0392265456354872
aF-3.7080657237775552
aF9.4995469197257201
aF-0.348685255390492
aF0.45810296238394499
aF9.2654574868727089
aF-1.2646589197976921
aF0.52947791274457301
aF8.7413597712851736
aF0.117389328363048
aF0.78494654931589403
aF0.31523841935955499
aF-2.9484265132447312
aF3.0996748490608699
aF0.102684947843691
aF-2.1197149001981561
aF3.508279895711369
aF0.77695280831267999
aF-2.7115959565848939
aF2.3061818683321249
aF-6.7240257888678423
aF-4.7698269159798867
aF5.116642678026067
aF-6.2743016870238044
aF-4.3408951889838088
aF4.4006358304353874
aF-7.6000622755632996
aF-4.4076756927683078
aF5.0991336659293509
aF2.3979567352899611
aF-1.2526034015708889
aF8.5060416618104018
aF2.8139707407197911
aF-1.603589639812699
aF7.7297421011696343
aF1.6066136950557759
aF-1.765318799127628
aF8.6050321349941843
aF3.3478798316147258
aF-4.2777279656398903
aF8.8873446450138793
aF3.242746335130172
aF-4.152117334808171
aF7.9534983421679746
aF4.2494175080440701
aF-4.5522783826354649
aF8.9910359489206186
aF5.8354599203971391
aF-1.8339057179252649
aF-4.3699751162618128
aF6.1503362960959409
aF-0.93961840995720203
aF-4.3682204556099862
aF5.1885420097026866
aF-1.8603134697823061
aF-3.6773714435423281
aF6.7649808372231757
aF-1.0008250249892121
aF2.2901064789121479
aF7.3023897554009256
aF-0.75124569415611697
aF3.0302428260022669
aF6.7141709747039684
aF-1.94623371923518
aF2.3403136369162549
aF3.1987683922898058
aF-4.0736888119805119
aF-0.29751827998812103
aF3.1653756520338798
aF-5.0102777338545659
aF-0.154039653283713
aF3.9572704607273832
aF-3.944177106508278
aF-0.85141477783005404
aF3.5836380330228121
aF-1.7391630026772811
aF4.7219452024683486
aF3.6149230499686169
aF-2.5813036214981122
aF5.156364845033913
aF2.67013438908387
aF-1.487538262492953
aF4.7550523412367234
aF2.7944140949938099
aF2.4855372142602818
aF-8.5074498588965977
aF3.3634803586850799
aF1.727998236077201
aF-8.5420660987530255
aF1.9995379937408551
aF2.2067745218995429
aF-8.9426088470890601
aF5.3411227787082076
aF5.2812206679031011
aF-3.826939098338292
aF5.7302624811358251
aF5.1021716307578568
aF-2.981118943522985
aF6.074923101358455
aF5.3049420837451278
aF-4.4268344066286947
aF3.875275093400266
aF-2.0072078720277542
aF-2.222134754269057
aF3.1914259372485581
aF-2.6350540875080939
aF-2.4146430952249842
aF3.4893316497083622
aF-1.422618874372243
aF-1.5832268093416639
aF4.2005044155011069
aF1.929374401952876
aF-3.1647756046124131
aF4.4239793118285649
aF2.7927632133715652
aF-3.4865188734283898
aF4.9101190091705407
aF1.3739819195211569
aF-3.4595404581985809
aF1.2281169329326309
aF6.5738788842928164
aF1.4399874470436129
aF0.98411055955609805
aF5.7169560824353693
aF1.764092679041551
aF0.41879660502890398
aF6.9449010188877169
aF1.114037784545822
aF5.52877378879041
aF3.986950745566606
aF6.7969950172699516
aF5.5920843101441484
aF3.3281176756625421
aF7.4758401865734454
aF6.3873533091529353
aF3.9984203958182492
aF6.3949879845738176
aF3.2609912707932742
aF2.4193154695672372
aF5.9529820957164068
aF3.96073963631058
aF3.0174919975910131
aF6.1797795081295073
aF2.9529800847554628
aF2.7217036780892818
aF5.1088313505159988
aF6.2329884884770834
aF-8.435124681503547
aF-8.7445386356092172
aF6.691067829377686
aF-7.850573076376274
aF-8.1551637647645929
aF6.2249182140122121
aF-7.9780990806736556
aF-9.5751784317038364
aF6.9473240559382177
aF2.7613825876291962
aF-1.2430666982859531
aF6.5439678100268228
aF3.6152996340179642
aF-1.1592250811085709
aF7.0808599199497753
aF2.4720073370568572
aF-0.350133253185547
aF7.1506275042241052
aF1.0049974795808601
aF4.5471959263974
aF7.4402118753956454
aF1.82984782971138
aF4.9141602187511637
aF6.4009643040114241
aF0.75998210082376205
aF5.0733827282267354
aF4.8665204584084876
aF0.32411276307718601
aF6.3550086451684278
aF4.2191589229942004
aF0.99890131421738804
aF6.5114805395013677
aF4.4772105856806519
aF-0.23071430476993399
aF5.6920571026098878
aF3.1846825590732508
aF5.4330823181753374
aF5.1329944342508584
aF3.427991995536479
aF5.381788169672773
aF4.218079449972377
aF3.9672162835956422
aF5.1762050211233062
aF5.6026272953715548
aF0.71138134515066698
aF6.9409298640334338
aF4.5590835197253883
aF0.77839629681589595
aF6.208490350176179
aF5.1573655224580994
aF1.5138183571382551
aF6.9112782992499007
aF4.0549846936027203
aF3.826477331345473
aF-7.7284953357708428
aF-7.3829447955401664
aF4.2882634800834314
aF-6.9351108012680784
aF-7.1458909340536696
aF4.503015956515859
aF-8.312958028781587
aF-7.6985376489623434
aF6.4000978361162462
aF4.7837549081864159
aF-7.5000468616165783
aF5.5368990974004371
aF4.9167861493147083
aF-7.8689514920610266
aF6.5063300108130324
aF3.841945567370721
aF-7.4753508981509658
aF3.5506881358807951
aF8.8546116703457187
aF-4.2512682259220229
aF4.0826718621040499
aF8.5736264281730517
aF-4.9840305398511209
aF2.8067713330689772
aF9.287563391295544
aF-4.648811428380327
aF3.4938174935902282
aF7.3765635912400924
aF2.969653424989311
aF4.2798167028387599
aF7.4599135646353556
aF2.446052407996663
aF2.8400864405497712
aF7.046371951876683
aF2.3675660629021511
aF2.4523355119912771
aF-7.5815772656902247
aF5.9696746737884299
aF2.7273053994299672
aF-8.4419817833382336
aF5.681585057500623
aF1.8681309578585299
aF-7.7491463410724668
aF6.6973598006847332
aF-3.184327120304332
aF-8.6484425697249065
aF6.500483865019028
aF-2.382686098900594
aF-8.2794762156852535
aF6.1538781778333691
aF-2.9342170373022811
aF-9.0193935135883603
aF7.336390763918395
aF5.9723028635447903
aF-4.5637184501953936
aF8.9917750067420013
aF6.5664076962129636
aF-4.1398068112830329
aF8.3865986934290611
aF6.1745033062751178
aF-5.4869985689575396
aF8.9171505921168368
aF7.0226560943201406
aF-6.8441366561908934
aF-6.8303588685400713
aF7.7912628630859722
aF-6.3192734111194939
aF-7.0110857591246099
aF6.3854937565473771
aF-6.2267487248411602
aF-6.4960591563839616
aF8.3337340556599795
aF-8.3911019793272494
aF-3.9166735026124928
aF8.6834196528907928
aF-9.041257536090809
aF-3.3217636480137629
aF7.5297028916299844
aF-8.7737345351845253
aF-4.2422901705930256
aF5.8970968791813654
aF-7.1607898954202236
aF2.6601833301894628
aF6.6450022025064088
aF-6.6691915160704021
aF2.973023002805796
aF5.1462044346207216
aF-6.7070630874764756
aF3.019616940825629
aF2.885784801629129
aF7.1949747214453126
aF7.9333490002344016
aF2.3208314260398408
aF6.936631886638116
aF8.6495798730080118
aF2.9917142306649298
aF8.1312083246350504
aF8.0389217065672209
aF8.2096678529292184
aF-6.0861621387656726
aF3.604896294537836
aF8.8508469722955443
aF-5.5633614665459508
aF3.1417885381622881
aF8.7131292466403529
aF-6.5640314215686146
aF4.2507039854147566
aF7.2606662676862026
aF-2.8532512940173711
aF6.7608585910846459
aF7.2420413282981722
aF-1.928311962534198
aF6.9683202615401614
aF8.1379285467840159
aF-3.0071363176882731
aF6.4358504478604814
aF6.1475159295981241
aF-2.091985730611055
aF-8.3952995393840322
aF5.4299894212364253
aF-2.499174143169391
aF-7.9281236555068526
aF6.6484887041928333
aF-2.818093646142426
aF-8.7427093465534824
aF8.9658381172201942
aF-3.281767352246876
aF-0.5130820750706
aF9.1088925526042246
aF-4.0879584122934274
aF-0.99108981895971504
aF8.1145111879899385
aF-2.980911894593774
aF-0.80226792044989403
aF-7.5732232288733954
aF-6.8130728828053977
aF-3.7301443212427379
aF-7.3013062082470483
aF-7.5801296111047369
aF-3.2437441675993388
aF-7.0640901269127276
aF-6.1036410553146512
aF-3.360834198674945
aF6.4283320442679539
aF-5.1042591976336329
aF5.4330054287472436
aF6.544712163929999
aF-4.3413979614302951
aF5.9838215523726612
aF7.2140810826822284
aF-5.1382119247784912
aF4.9035286483777298
aF9.1593615128284398
aF-3.255332628235946
aF-9.4223623853448117
aF9.2523877783134552
aF-4.0910634356566273
aF-9.8603123042371639
aF9.4089764122058082
aF-3.4277240034268588
aF-8.524100944689275
aF-7.5269654487864077
aF-1.766821695132514
aF-6.1338025657724824
aF-7.3752890783554577
aF-0.91352599168247495
aF-5.7493799843252624
aF-7.2642773798053657
aF-2.3814260350053829
aF-5.4613767454588871
aF5.2524434276410377
aF-5.1268033367661889
aF-2.4430186007672918
aF4.5738830811532063
aF-5.1303276567535789
aF-3.1051692145576109
aF5.6404924444715867
aF-5.9903163439405871
aF-2.494625257096835
aF-6.6472423301833974
aF0.087923119060386995
aF1.4239095375076261
aF-6.1091734057671827
aF-0.31777413895657303
aF0.75698257942673497
aF-7.518056390418792
aF-0.252936509344169
aF1.267712270501415
aF7.0543234443652176
aF1.6547609855834791
aF1.197033865757823
aF6.7417897861231264
aF0.90328736657728104
aF1.683356919296868
aF6.9384156695043444
aF2.386621745074422
aF1.788511013620828
aF8.8369755087947794
aF2.3120644495945859
aF7.6171491479556899
aF8.800884685932461
aF2.781998636927399
aF6.7944953252082909
aF8.9790015112422843
aF2.984737492882239
aF8.270019419497336
aF7.6217841401546256
aF-0.181889618886695
aF7.6372467818328209
aF8.1370019434844565
aF0.57196376815888195
aF7.3819906634501571
aF6.7244867300662463
aF0.12338294358083
aF7.6134555974742986
aF3.759595542082689
aF0.32813620020601397
aF-0.87605597982778904
aF3.8424706838017961
aF0.73822185068583801
aF-1.726856467695294
aF4.5335902710254219
aF0.60295916978915098
aF-0.402448024913238
aF6.5227302630814377
aF5.6991510899696749
aF-1.129914192543922
aF7.3233994231149451
aF5.4866708610863917
aF-0.66874063681360796
aF6.004801879449559
aF6.1812504604897418
aF-0.49885921366121999
aF6.3106798915314952
aF-7.7786176252172146
aF-2.1272949651400439
aF5.9325086345427582
aF-8.6286372245446277
aF-2.3099234983617731
aF7.0520117731847023
aF-7.7161650835313251
aF-2.7150251083872998
aF-7.365846293352746
aF3.8056760121656761
aF5.90765350515814
aF-7.8041716394031617
aF4.4445857001156677
aF6.454064798648127
aF-6.653338057230707
aF4.2846427286478308
aF5.5053813361475443
aF-8.4514612592467788
aF3.8238178692549991
aF3.1872933682420439
aF-7.7384416617914358
aF3.4609898172249438
aF2.67851162888349
aF-8.0708010471010638
aF4.0038757528595408
aF4.0367502308554579
aF6.0345782730039064
aF2.5903103330602049
aF9.0089349614133454
aF6.92378219057073
aF2.5709125914919349
aF9.3373251570737636
aF5.6059437844012683
aF1.8615732480768461
aF9.4380208923760929
aF5.5954130125095478
aF6.6868970811955144
aF7.7405971476688027
aF4.6491078270455679
aF6.7210605944782866
aF7.6932753733560082
aF5.8124374705205089
aF5.7883333011091098
aF7.5299231869096701
aF-4.0433059184371931
aF9.1145843837029705
aF-6.1575584617096872
aF-3.896075134383036
aF9.8947820966634197
aF-6.6757424299275367
aF-4.0568827873514941
aF8.4077571692520774
aF-6.7893107529932353
aF5.4245699955667828
aF8.2823242852831598
aF-2.2413589629985662
aF4.8583947456450929
aF8.580364552501754
aF-2.9410142963537669
aF5.2802835162779536
aF7.3461675268155231
aF-2.200225819795862
aF8.941788654934717
aF4.7620031800455678
aF0.73584812339196803
aF8.1143466376302431
aF4.8566843150175716
aF1.1889211756468421
aF9.439441849724485
aF4.1586435704307849
aF1.271757144776124
aF0.72144855167539002
aF0.487476119265635
aF4.4289012119518256
aF1.0392286898973599
aF1.2710425011909201
aF4.0000195162965682
aF0.32095918064628198
aF0.79959408668423004
aF5.2295825706127417
aF-9.4687056216880556
aF5.5822095853215332
aF7.1835894245549898
aF-9.6242068115025372
aF5.2743120328700792
aF8.0667193567623201
aF-8.7916624744841165
aF6.2394658657669364
aF7.2759298741925234
aF3.234748475268582
aF5.9386304802930256
aF-5.5213941762513068
aF3.9080135435911978
aF5.8936843069582894
aF-4.8553656563821219
aF3.028383766818552
aF5.0333868813702196
aF-5.7133515509872161
aF-8.8531210075886939
aF-7.9881118258720401
aF-6.065530113738439
aF-8.1306038757740566
aF-7.4281709298021834
aF-5.8138652827769999
aF-9.4484299845644202
aF-7.9550692530507314
aF-5.328362961517545
aF7.6092114163053992
aF5.7925550739989662
aF-4.9680169092975657
aF7.3678627631657037
aF5.5692497066113171
aF-5.857278142301432
aF7.962019667407028
aF6.6703879987003463
aF-5.0299498913408742
aF5.7259133664958286
aF7.6614864123215867
aF0.88904698544522598
aF5.5172227094200421
aF8.5566870704521438
aF0.65674547591101595
aF6.600505788412959
aF7.7070520804253464
aF1.252243716453886
aF8.3273876222105585
aF8.7350570503706138
aF1.50725103413451
aF8.2484506754926645
aF9.6187288918538503
aF1.1728963795945371
aF8.0130156344756216
aF8.7889349953572555
aF2.4000933608482491
aF7.5465590927032524
aF7.7381284821373244
aF-9.2916037528180944
aF7.24094377802429
aF8.5525918449873721
aF-8.9145776131294276
aF6.7611103411822793
aF7.3132157588153524
aF-9.6100679365079849
asg1636
(lp1648
I648
aI3
asS'storage'
p1649
S'RowMajor'
p1650
sbsS'symmetryParameters'
p1651
g1
(cpMolecule.SymmetryParameters
SymmetryParameters
p1652
tRp1653
(dp1654
S'a'
F18.674891648600831
sS'c'
F18.674891648600831
sS'b'
F18.674891648600831
sS'beta'
p1655
F90
sS'alpha'
p1656
F90
sS'gamma'
p1657
F90
sbsbsS'symmetry'
p1658
g1
(cpMolecule.Symmetry
Symmetry
p1659
tRp1660
(dp1661
S'crystalClass'
p1662
g1
(cpMolecule.CrystalClass
CrystalClassCubic
p1663
tRp1664
(dbsS'transformations'
p1665
g1
(cpCore.Transformation3Container
Transformation3Container
p1666
tRp1667
(dp1668
g1634
(lp1669
g1
(cpCore.Transformation3
Transformation3
p1670
tRp1671
(dp1672
S'rotation'
p1673
g1
(cpCore.Matrix33
Matrix33
p1674
tRp1675
(dp1676
g1634
(lp1677
F1
aF0
aF0
aF0
aF1
aF0
aF0
aF0
aF1
asg1636
(lp1678
I3
aI3
asg1649
g1650
sbsS'translation'
p1679
g1
(cpCore.Vector3
Vector3
p1680
tRp1681
(dp1682
g1634
(lp1683
F0
aF0
aF0
asbsbasbsbsS'bonds'
p1684
(dp1685
S'Single'
p1686
(lp1687
(lp1688
I1
aI0
aa(lp1689
I2
aI0
aa(lp1690
I4
aI3
aa(lp1691
I5
aI3
aa(lp1692
I7
aI6
aa(lp1693
I8
aI6
aa(lp1694
I10
aI9
aa(lp1695
I11
aI9
aa(lp1696
I13
aI12
aa(lp1697
I14
aI12
aa(lp1698
I16
aI15
aa(lp1699
I17
aI15
aa(lp1700
I19
aI18
aa(lp1701
I20
aI18
aa(lp1702
I22
aI21
aa(lp1703
I23
aI21
aa(lp1704
I25
aI24
aa(lp1705
I26
aI24
aa(lp1706
I28
aI27
aa(lp1707
I29
aI27
aa(lp1708
I31
aI30
aa(lp1709
I32
aI30
aa(lp1710
I34
aI33
aa(lp1711
I35
aI33
aa(lp1712
I37
aI36
aa(lp1713
I38
aI36
aa(lp1714
I40
aI39
aa(lp1715
I41
aI39
aa(lp1716
I43
aI42
aa(lp1717
I44
aI42
aa(lp1718
I46
aI45
aa(lp1719
I47
aI45
aa(lp1720
I49
aI48
aa(lp1721
I50
aI48
aa(lp1722
I52
aI51
aa(lp1723
I53
aI51
aa(lp1724
I55
aI54
aa(lp1725
I56
aI54
aa(lp1726
I58
aI57
aa(lp1727
I59
aI57
aa(lp1728
I61
aI60
aa(lp1729
I62
aI60
aa(lp1730
I64
aI63
aa(lp1731
I65
aI63
aa(lp1732
I67
aI66
aa(lp1733
I68
aI66
aa(lp1734
I70
aI69
aa(lp1735
I71
aI69
aa(lp1736
I73
aI72
aa(lp1737
I74
aI72
aa(lp1738
I76
aI75
aa(lp1739
I77
aI75
aa(lp1740
I79
aI78
aa(lp1741
I80
aI78
aa(lp1742
I82
aI81
aa(lp1743
I83
aI81
aa(lp1744
I85
aI84
aa(lp1745
I86
aI84
aa(lp1746
I88
aI87
aa(lp1747
I89
aI87
aa(lp1748
I91
aI90
aa(lp1749
I92
aI90
aa(lp1750
I94
aI93
aa(lp1751
I95
aI93
aa(lp1752
I97
aI96
aa(lp1753
I98
aI96
aa(lp1754
I100
aI99
aa(lp1755
I101
aI99
aa(lp1756
I103
aI102
aa(lp1757
I104
aI102
aa(lp1758
I106
aI105
aa(lp1759
I107
aI105
aa(lp1760
I109
aI108
aa(lp1761
I110
aI108
aa(lp1762
I112
aI111
aa(lp1763
I113
aI111
aa(lp1764
I115
aI114
aa(lp1765
I116
aI114
aa(lp1766
I118
aI117
aa(lp1767
I119
aI117
aa(lp1768
I121
aI120
aa(lp1769
I122
aI120
aa(lp1770
I124
aI123
aa(lp1771
I125
aI123
aa(lp1772
I127
aI126
aa(lp1773
I128
aI126
aa(lp1774
I130
aI129
aa(lp1775
I131
aI129
aa(lp1776
I133
aI132
aa(lp1777
I134
aI132
aa(lp1778
I136
aI135
aa(lp1779
I137
aI135
aa(lp1780
I139
aI138
aa(lp1781
I140
aI138
aa(lp1782
I142
aI141
aa(lp1783
I143
aI141
aa(lp1784
I145
aI144
aa(lp1785
I146
aI144
aa(lp1786
I148
aI147
aa(lp1787
I149
aI147
aa(lp1788
I151
aI150
aa(lp1789
I152
aI150
aa(lp1790
I154
aI153
aa(lp1791
I155
aI153
aa(lp1792
I157
aI156
aa(lp1793
I158
aI156
aa(lp1794
I160
aI159
aa(lp1795
I161
aI159
aa(lp1796
I163
aI162
aa(lp1797
I164
aI162
aa(lp1798
I166
aI165
aa(lp1799
I167
aI165
aa(lp1800
I169
aI168
aa(lp1801
I170
aI168
aa(lp1802
I172
aI171
aa(lp1803
I173
aI171
aa(lp1804
I175
aI174
aa(lp1805
I176
aI174
aa(lp1806
I178
aI177
aa(lp1807
I179
aI177
aa(lp1808
I181
aI180
aa(lp1809
I182
aI180
aa(lp1810
I184
aI183
aa(lp1811
I185
aI183
aa(lp1812
I187
aI186
aa(lp1813
I188
aI186
aa(lp1814
I190
aI189
aa(lp1815
I191
aI189
aa(lp1816
I193
aI192
aa(lp1817
I194
aI192
aa(lp1818
I196
aI195
aa(lp1819
I197
aI195
aa(lp1820
I199
aI198
aa(lp1821
I200
aI198
aa(lp1822
I202
aI201
aa(lp1823
I203
aI201
aa(lp1824
I205
aI204
aa(lp1825
I206
aI204
aa(lp1826
I208
aI207
aa(lp1827
I209
aI207
aa(lp1828
I211
aI210
aa(lp1829
I212
aI210
aa(lp1830
I214
aI213
aa(lp1831
I215
aI213
aa(lp1832
I217
aI216
aa(lp1833
I218
aI216
aa(lp1834
I220
aI219
aa(lp1835
I221
aI219
aa(lp1836
I223
aI222
aa(lp1837
I224
aI222
aa(lp1838
I226
aI225
aa(lp1839
I227
aI225
aa(lp1840
I229
aI228
aa(lp1841
I230
aI228
aa(lp1842
I232
aI231
aa(lp1843
I233
aI231
aa(lp1844
I235
aI234
aa(lp1845
I236
aI234
aa(lp1846
I238
aI237
aa(lp1847
I239
aI237
aa(lp1848
I241
aI240
aa(lp1849
I242
aI240
aa(lp1850
I244
aI243
aa(lp1851
I245
aI243
aa(lp1852
I247
aI246
aa(lp1853
I248
aI246
aa(lp1854
I250
aI249
aa(lp1855
I251
aI249
aa(lp1856
I253
aI252
aa(lp1857
I254
aI252
aa(lp1858
I256
aI255
aa(lp1859
I257
aI255
aa(lp1860
I259
aI258
aa(lp1861
I260
aI258
aa(lp1862
I262
aI261
aa(lp1863
I263
aI261
aa(lp1864
I265
aI264
aa(lp1865
I266
aI264
aa(lp1866
I268
aI267
aa(lp1867
I269
aI267
aa(lp1868
I271
aI270
aa(lp1869
I272
aI270
aa(lp1870
I274
aI273
aa(lp1871
I275
aI273
aa(lp1872
I277
aI276
aa(lp1873
I278
aI276
aa(lp1874
I280
aI279
aa(lp1875
I281
aI279
aa(lp1876
I283
aI282
aa(lp1877
I284
aI282
aa(lp1878
I286
aI285
aa(lp1879
I287
aI285
aa(lp1880
I289
aI288
aa(lp1881
I290
aI288
aa(lp1882
I292
aI291
aa(lp1883
I293
aI291
aa(lp1884
I295
aI294
aa(lp1885
I296
aI294
aa(lp1886
I298
aI297
aa(lp1887
I299
aI297
aa(lp1888
I301
aI300
aa(lp1889
I302
aI300
aa(lp1890
I304
aI303
aa(lp1891
I305
aI303
aa(lp1892
I307
aI306
aa(lp1893
I308
aI306
aa(lp1894
I310
aI309
aa(lp1895
I311
aI309
aa(lp1896
I313
aI312
aa(lp1897
I314
aI312
aa(lp1898
I316
aI315
aa(lp1899
I317
aI315
aa(lp1900
I319
aI318
aa(lp1901
I320
aI318
aa(lp1902
I322
aI321
aa(lp1903
I323
aI321
aa(lp1904
I325
aI324
aa(lp1905
I326
aI324
aa(lp1906
I328
aI327
aa(lp1907
I329
aI327
aa(lp1908
I331
aI330
aa(lp1909
I332
aI330
aa(lp1910
I334
aI333
aa(lp1911
I335
aI333
aa(lp1912
I337
aI336
aa(lp1913
I338
aI336
aa(lp1914
I340
aI339
aa(lp1915
I341
aI339
aa(lp1916
I343
aI342
aa(lp1917
I344
aI342
aa(lp1918
I346
aI345
aa(lp1919
I347
aI345
aa(lp1920
I349
aI348
aa(lp1921
I350
aI348
aa(lp1922
I352
aI351
aa(lp1923
I353
aI351
aa(lp1924
I355
aI354
aa(lp1925
I356
aI354
aa(lp1926
I358
aI357
aa(lp1927
I359
aI357
aa(lp1928
I361
aI360
aa(lp1929
I362
aI360
aa(lp1930
I364
aI363
aa(lp1931
I365
aI363
aa(lp1932
I367
aI366
aa(lp1933
I368
aI366
aa(lp1934
I370
aI369
aa(lp1935
I371
aI369
aa(lp1936
I373
aI372
aa(lp1937
I374
aI372
aa(lp1938
I376
aI375
aa(lp1939
I377
aI375
aa(lp1940
I379
aI378
aa(lp1941
I380
aI378
aa(lp1942
I382
aI381
aa(lp1943
I383
aI381
aa(lp1944
I385
aI384
aa(lp1945
I386
aI384
aa(lp1946
I388
aI387
aa(lp1947
I389
aI387
aa(lp1948
I391
aI390
aa(lp1949
I392
aI390
aa(lp1950
I394
aI393
aa(lp1951
I395
aI393
aa(lp1952
I397
aI396
aa(lp1953
I398
aI396
aa(lp1954
I400
aI399
aa(lp1955
I401
aI399
aa(lp1956
I403
aI402
aa(lp1957
I404
aI402
aa(lp1958
I406
aI405
aa(lp1959
I407
aI405
aa(lp1960
I409
aI408
aa(lp1961
I410
aI408
aa(lp1962
I412
aI411
aa(lp1963
I413
aI411
aa(lp1964
I415
aI414
aa(lp1965
I416
aI414
aa(lp1966
I418
aI417
aa(lp1967
I419
aI417
aa(lp1968
I421
aI420
aa(lp1969
I422
aI420
aa(lp1970
I424
aI423
aa(lp1971
I425
aI423
aa(lp1972
I427
aI426
aa(lp1973
I428
aI426
aa(lp1974
I430
aI429
aa(lp1975
I431
aI429
aa(lp1976
I433
aI432
aa(lp1977
I434
aI432
aa(lp1978
I436
aI435
aa(lp1979
I437
aI435
aa(lp1980
I439
aI438
aa(lp1981
I440
aI438
aa(lp1982
I442
aI441
aa(lp1983
I443
aI441
aa(lp1984
I445
aI444
aa(lp1985
I446
aI444
aa(lp1986
I448
aI447
aa(lp1987
I449
aI447
aa(lp1988
I451
aI450
aa(lp1989
I452
aI450
aa(lp1990
I454
aI453
aa(lp1991
I455
aI453
aa(lp1992
I457
aI456
aa(lp1993
I458
aI456
aa(lp1994
I460
aI459
aa(lp1995
I461
aI459
aa(lp1996
I463
aI462
aa(lp1997
I464
aI462
aa(lp1998
I466
aI465
aa(lp1999
I467
aI465
aa(lp2000
I469
aI468
aa(lp2001
I470
aI468
aa(lp2002
I472
aI471
aa(lp2003
I473
aI471
aa(lp2004
I475
aI474
aa(lp2005
I476
aI474
aa(lp2006
I478
aI477
aa(lp2007
I479
aI477
aa(lp2008
I481
aI480
aa(lp2009
I482
aI480
aa(lp2010
I484
aI483
aa(lp2011
I485
aI483
aa(lp2012
I487
aI486
aa(lp2013
I488
aI486
aa(lp2014
I490
aI489
aa(lp2015
I491
aI489
aa(lp2016
I493
aI492
aa(lp2017
I494
aI492
aa(lp2018
I496
aI495
aa(lp2019
I497
aI495
aa(lp2020
I499
aI498
aa(lp2021
I500
aI498
aa(lp2022
I502
aI501
aa(lp2023
I503
aI501
aa(lp2024
I505
aI504
aa(lp2025
I506
aI504
aa(lp2026
I508
aI507
aa(lp2027
I509
aI507
aa(lp2028
I511
aI510
aa(lp2029
I512
aI510
aa(lp2030
I514
aI513
aa(lp2031
I515
aI513
aa(lp2032
I517
aI516
aa(lp2033
I518
aI516
aa(lp2034
I520
aI519
aa(lp2035
I521
aI519
aa(lp2036
I523
aI522
aa(lp2037
I524
aI522
aa(lp2038
I526
aI525
aa(lp2039
I527
aI525
aa(lp2040
I529
aI528
aa(lp2041
I530
aI528
aa(lp2042
I532
aI531
aa(lp2043
I533
aI531
aa(lp2044
I535
aI534
aa(lp2045
I536
aI534
aa(lp2046
I538
aI537
aa(lp2047
I539
aI537
aa(lp2048
I541
aI540
aa(lp2049
I542
aI540
aa(lp2050
I544
aI543
aa(lp2051
I545
aI543
aa(lp2052
I547
aI546
aa(lp2053
I548
aI546
aa(lp2054
I550
aI549
aa(lp2055
I551
aI549
aa(lp2056
I553
aI552
aa(lp2057
I554
aI552
aa(lp2058
I556
aI555
aa(lp2059
I557
aI555
aa(lp2060
I559
aI558
aa(lp2061
I560
aI558
aa(lp2062
I562
aI561
aa(lp2063
I563
aI561
aa(lp2064
I565
aI564
aa(lp2065
I566
aI564
aa(lp2066
I568
aI567
aa(lp2067
I569
aI567
aa(lp2068
I571
aI570
aa(lp2069
I572
aI570
aa(lp2070
I574
aI573
aa(lp2071
I575
aI573
aa(lp2072
I577
aI576
aa(lp2073
I578
aI576
aa(lp2074
I580
aI579
aa(lp2075
I581
aI579
aa(lp2076
I583
aI582
aa(lp2077
I584
aI582
aa(lp2078
I586
aI585
aa(lp2079
I587
aI585
aa(lp2080
I589
aI588
aa(lp2081
I590
aI588
aa(lp2082
I592
aI591
aa(lp2083
I593
aI591
aa(lp2084
I595
aI594
aa(lp2085
I596
aI594
aa(lp2086
I598
aI597
aa(lp2087
I599
aI597
aa(lp2088
I601
aI600
aa(lp2089
I602
aI600
aa(lp2090
I604
aI603
aa(lp2091
I605
aI603
aa(lp2092
I607
aI606
aa(lp2093
I608
aI606
aa(lp2094
I610
aI609
aa(lp2095
I611
aI609
aa(lp2096
I613
aI612
aa(lp2097
I614
aI612
aa(lp2098
I616
aI615
aa(lp2099
I617
aI615
aa(lp2100
I619
aI618
aa(lp2101
I620
aI618
aa(lp2102
I622
aI621
aa(lp2103
I623
aI621
aa(lp2104
I625
aI624
aa(lp2105
I626
aI624
aa(lp2106
I628
aI627
aa(lp2107
I629
aI627
aa(lp2108
I631
aI630
aa(lp2109
I632
aI630
aa(lp2110
I634
aI633
aa(lp2111
I635
aI633
aa(lp2112
I637
aI636
aa(lp2113
I638
aI636
aa(lp2114
I640
aI639
aa(lp2115
I641
aI639
aa(lp2116
I643
aI642
aa(lp2117
I644
aI642
aa(lp2118
I646
aI645
aa(lp2119
I647
aI645
aassg32
(dp2120
S'atomicNumber'
p2121
(lp2122
I8
aI1
aI1
aI8
aI1
aI1
aI8
aI1
aI1
aI8
aI1
aI1
aI8
aI1
aI1
aI8
aI1
aI1
aI8
aI1
aI1
aI8
aI1
aI1
aI8
aI1
aI1
aI8
aI1
aI1
aI8
aI1
aI1
aI8
aI1
aI1
aI8
aI1
aI1
aI8
aI1
aI1
aI8
aI1
aI1
aI8
aI1
aI1
aI8
aI1
aI1
aI8
aI1
aI1
aI8
aI1
aI1
aI8
aI1
aI1
aI8
aI1
aI1
aI8
aI1
aI1
aI8
aI1
aI1
aI8
aI1
aI1
aI8
aI1
aI1
aI8
aI1
aI1
aI8
aI1
aI1
aI8
aI1
aI1
aI8
aI1
aI1
aI8
aI1
aI1
aI8
aI1
aI1
aI8
aI1
aI1
aI8
aI1
aI1
aI8
aI1
aI1
aI8
aI1
aI1
aI8
aI1
aI1
aI8
aI1
aI1
aI8
aI1
aI1
aI8
aI1
aI1
aI8
aI1
aI1
aI8
aI1
aI1
aI8
aI1
aI1
aI8
aI1
aI1
aI8
aI1
aI1
aI8
aI1
aI1
aI8
aI1
aI1
aI8
aI1
aI1
aI8
aI1
aI1
aI8
aI1
aI1
aI8
aI1
aI1
aI8
aI1
aI1
aI8
aI1
aI1
aI8
aI1
aI1
aI8
aI1
aI1
aI8
aI1
aI1
aI8
aI1
aI1
aI8
aI1
aI1
aI8
aI1
aI1
aI8
aI1
aI1
aI8
aI1
aI1
aI8
aI1
aI1
aI8
aI1
aI1
aI8
aI1
aI1
aI8
aI1
aI1
aI8
aI1
aI1
aI8
aI1
aI1
aI8
aI1
aI1
aI8
aI1
aI1
aI8
aI1
aI1
aI8
aI1
aI1
aI8
aI1
aI1
aI8
aI1
aI1
aI8
aI1
aI1
aI8
aI1
aI1
aI8
aI1
aI1
aI8
aI1
aI1
aI8
aI1
aI1
aI8
aI1
aI1
aI8
aI1
aI1
aI8
aI1
aI1
aI8
aI1
aI1
aI8
aI1
aI1
aI8
aI1
aI1
aI8
aI1
aI1
aI8
aI1
aI1
aI8
aI1
aI1
aI8
aI1
aI1
aI8
aI1
aI1
aI8
aI1
aI1
aI8
aI1
aI1
aI8
aI1
aI1
aI8
aI1
aI1
aI8
aI1
aI1
aI8
aI1
aI1
aI8
aI1
aI1
aI8
aI1
aI1
aI8
aI1
aI1
aI8
aI1
aI1
aI8
aI1
aI1
aI8
aI1
aI1
aI8
aI1
aI1
aI8
aI1
aI1
aI8
aI1
aI1
aI8
aI1
aI1
aI8
aI1
aI1
aI8
aI1
aI1
aI8
aI1
aI1
aI8
aI1
aI1
aI8
aI1
aI1
aI8
aI1
aI1
aI8
aI1
aI1
aI8
aI1
aI1
aI8
aI1
aI1
aI8
aI1
aI1
aI8
aI1
aI1
aI8
aI1
aI1
aI8
aI1
aI1
aI8
aI1
aI1
aI8
aI1
aI1
aI8
aI1
aI1
aI8
aI1
aI1
aI8
aI1
aI1
aI8
aI1
aI1
aI8
aI1
aI1
aI8
aI1
aI1
aI8
aI1
aI1
aI8
aI1
aI1
aI8
aI1
aI1
aI8
aI1
aI1
aI8
aI1
aI1
aI8
aI1
aI1
aI8
aI1
aI1
aI8
aI1
aI1
aI8
aI1
aI1
aI8
aI1
aI1
aI8
aI1
aI1
aI8
aI1
aI1
aI8
aI1
aI1
aI8
aI1
aI1
aI8
aI1
aI1
aI8
aI1
aI1
aI8
aI1
aI1
aI8
aI1
aI1
aI8
aI1
aI1
aI8
aI1
aI1
aI8
aI1
aI1
aI8
aI1
aI1
aI8
aI1
aI1
aI8
aI1
aI1
aI8
aI1
aI1
aI8
aI1
aI1
aI8
aI1
aI1
aI8
aI1
aI1
aI8
aI1
aI1
aI8
aI1
aI1
aI8
aI1
aI1
aI8
aI1
aI1
aI8
aI1
aI1
aI8
aI1
aI1
aI8
aI1
aI1
aI8
aI1
aI1
aI8
aI1
aI1
aI8
aI1
aI1
aI8
aI1
aI1
aI8
aI1
aI1
aI8
aI1
aI1
aI8
aI1
aI1
aI8
aI1
aI1
aI8
aI1
aI1
aI8
aI1
aI1
aI8
aI1
aI1
aI8
aI1
aI1
aI8
aI1
aI1
aI8
aI1
aI1
aI8
aI1
aI1
aI8
aI1
aI1
aI8
aI1
aI1
aI8
aI1
aI1
aI8
aI1
aI1
aI8
aI1
aI1
aI8
aI1
aI1
aI8
aI1
aI1
aI8
aI1
aI1
aI8
aI1
aI1
aI8
aI1
aI1
aI8
aI1
aI1
aI8
aI1
aI1
aI8
aI1
aI1
aI8
aI1
aI1
aI8
aI1
aI1
aI8
aI1
aI1
aI8
aI1
aI1
aI8
aI1
aI1
aI8
aI1
aI1
aI8
aI1
aI1
aI8
aI1
aI1
aI8
aI1
aI1
aI8
aI1
aI1
aI8
aI1
aI1
aI8
aI1
aI1
aI8
aI1
aI1
aI8
aI1
aI1
aI8
aI1
aI1
aI8
aI1
aI1
aI8
aI1
aI1
aI8
aI1
aI1
aI8
aI1
aI1
aI8
aI1
aI1
aI8
aI1
aI1
aI8
aI1
aI1
aI8
aI1
aI1
aI8
aI1
aI1
aI8
aI1
aI1
aI8
aI1
aI1
aI8
aI1
aI1
aI8
aI1
aI1
assS'ringSets'
p2123
(lp2124
sS'label'
p2125
S'Water Box.'
p2126
sb.