ccopy_reg
_reconstructor
p1
(cpCore.Testing
TestDataSet
p2
c__builtin__
object
p3
NtRp4
(dp5
S'data'
p6
(dp7
sS'children'
p8
(dp9
S'lda:321g'
p10
g1
(g2
g3
NtRp11
(dp12
g6
(dp13
S'carbonMonoxide'
p14
g1
(cpCore.Testing
TestReal
p15
g3
NtRp16
(dp17
S'valueFormat'
p18
S'{:.3f}'
p19
sS'parent'
p20
g11
sS'usePercentError'
p21
I00
sS'percentErrorTolerance'
p22
NsS'value'
p23
F-142905.27584958941
sS'label'
p24
g14
sS'absoluteErrorTolerance'
p25
F1
sS'toleranceFormat'
p26
g19
sS'units'
p27
NsbsS'carbonMonoxideStretched'
p28
g1
(g15
g3
NtRp29
(dp30
g18
g19
sg20
g11
sg21
I00
sg22
Nsg23
F-292516.41814300226
sg24
g28
sg25
F1
sg26
g19
sg27
NsbsS'acetylene'
p31
g1
(g15
g3
NtRp32
(dp33
g18
g19
sg20
g11
sg21
I00
sg22
Nsg23
F-199962.14660550794
sg24
g31
sg25
F1
sg26
g19
sg27
NsbsS'ammonia'
p34
g1
(g15
g3
NtRp35
(dp36
g18
g19
sg20
g11
sg21
I00
sg22
Nsg23
F-146355.97139117046
sg24
g34
sg25
F1
sg26
g19
sg27
NsbsS'allene'
p37
g1
(g15
g3
NtRp38
(dp39
g18
g19
sg20
g11
sg21
I00
sg22
Nsg23
F-301715.33507819375
sg24
g37
sg25
F1
sg26
g19
sg27
Nsbssg8
(dp40
sg20
g4
sg24
g10
sbsS'lda:svp'
p41
g1
(g2
g3
NtRp42
(dp43
g6
(dp44
g14
g1
(g15
g3
NtRp45
(dp46
g18
g19
sg20
g42
sg21
I00
sg22
Nsg23
F-294926.19246277743
sg24
g14
sg25
F1
sg26
g19
sg27
Nsbsg28
g1
(g15
g3
NtRp47
(dp48
g18
g19
sg20
g42
sg21
I00
sg22
Nsg23
F-293839.89862861263
sg24
g28
sg25
F1
sg26
g19
sg27
Nsbsg31
g1
(g15
g3
NtRp49
(dp50
g18
g19
sg20
g42
sg21
I00
sg22
Nsg23
F-200886.67838132707
sg24
g31
sg25
F1
sg26
g19
sg27
Nsbsg34
g1
(g15
g3
NtRp51
(dp52
g18
g19
sg20
g42
sg21
I00
sg22
Nsg23
F-147049.27943967294
sg24
g34
sg25
F1
sg26
g19
sg27
Nsbsg37
g1
(g15
g3
NtRp53
(dp54
g18
g19
sg20
g42
sg21
I00
sg22
Nsg23
F-303125.32571204117
sg24
g37
sg25
F1
sg26
g19
sg27
Nsbssg8
(dp55
sg20
g4
sg24
g41
sbsS'blyp:svp'
p56
g1
(g2
g3
NtRp57
(dp58
g6
(dp59
g14
g1
(g15
g3
NtRp60
(dp61
g18
g19
sg20
g57
sg21
I00
sg22
Nsg23
F-297234.53326775297
sg24
g14
sg25
F1
sg26
g19
sg27
Nsbsg28
g1
(g15
g3
NtRp62
(dp63
g18
g19
sg20
g57
sg21
I00
sg22
Nsg23
F-296234.09454806725
sg24
g28
sg25
F1
sg26
g19
sg27
Nsbsg31
g1
(g15
g3
NtRp64
(dp65
g18
g19
sg20
g57
sg21
I00
sg22
Nsg23
F-202744.17172627748
sg24
g31
sg25
F1
sg26
g19
sg27
Nsbsg34
g1
(g15
g3
NtRp66
(dp67
g18
g19
sg20
g57
sg21
I00
sg22
Nsg23
F-148240.43190181951
sg24
g34
sg25
F1
sg26
g19
sg27
Nsbsg37
g1
(g15
g3
NtRp68
(dp69
g18
g19
sg20
g57
sg21
I00
sg22
Nsg23
F-305875.43857802363
sg24
g37
sg25
F1
sg26
g19
sg27
Nsbssg8
(dp70
sg20
g4
sg24
g56
sbsS'blyp:321g'
p71
g1
(g2
g3
NtRp72
(dp73
g6
(dp74
g14
g1
(g15
g3
NtRp75
(dp76
g18
g19
sg20
g72
sg21
I00
sg22
Nsg23
F-145100.52119164009
sg24
g14
sg25
F1
sg26
g19
sg27
Nsbsg28
g1
(g15
g3
NtRp77
(dp78
g18
g19
sg20
g72
sg21
I00
sg22
Nsg23
F-294887.49381148745
sg24
g28
sg25
F1
sg26
g19
sg27
Nsbsg31
g1
(g15
g3
NtRp79
(dp80
g18
g19
sg20
g72
sg21
I00
sg22
Nsg23
F-201809.77594716652
sg24
g31
sg25
F1
sg26
g19
sg27
Nsbsg34
g1
(g15
g3
NtRp81
(dp82
g18
g19
sg20
g72
sg21
I00
sg22
Nsg23
F-147546.55558697766
sg24
g34
sg25
F1
sg26
g19
sg27
Nsbsg37
g1
(g15
g3
NtRp83
(dp84
g18
g19
sg20
g72
sg21
I00
sg22
Nsg23
F-304456.83069070819
sg24
g37
sg25
F1
sg26
g19
sg27
Nsbssg8
(dp85
sg20
g4
sg24
g71
sbssg20
Nsg24
S'MNDO RHF Energies'
p86
sb.
