ccopy_reg
_reconstructor
p1
(cpCore.Testing
TestDataSet
p2
c__builtin__
object
p3
NtRp4
(dp5
S'data'
p6
(dp7
sS'children'
p8
(dp9
S'pm6'
p10
g1
(g2
g3
NtRp11
(dp12
g6
(dp13
S'benzene'
p14
g1
(cpCore.Testing
TestReal
p15
g3
NtRp16
(dp17
S'valueFormat'
p18
S'{:.3f}'
p19
sS'parent'
p20
g11
sS'usePercentError'
p21
I00
sS'percentErrorTolerance'
p22
NsS'value'
p23
F102.30867855930951
sS'label'
p24
g14
sS'absoluteErrorTolerance'
p25
F1
sS'toleranceFormat'
p26
g19
sS'units'
p27
NsbsS'methylamine'
p28
g1
(g15
g3
NtRp29
(dp30
g18
g19
sg20
g11
sg21
I00
sg22
Nsg23
F24.911586708512115
sg24
g28
sg25
F1
sg26
g19
sg27
NsbsS'acetylene'
p31
g1
(g15
g3
NtRp32
(dp33
g18
g19
sg20
g11
sg21
I00
sg22
Nsg23
F190.17692564417558
sg24
g31
sg25
F1
sg26
g19
sg27
NsbsS'glycine'
p34
g1
(g15
g3
NtRp35
(dp36
g18
g19
sg20
g11
sg21
I00
sg22
Nsg23
F-380.64915051795083
sg24
g34
sg25
F1
sg26
g19
sg27
NsbsS'trifluorobenzene'
p37
g1
(g15
g3
NtRp38
(dp39
g18
g19
sg20
g11
sg21
I00
sg22
Nsg23
F-493.66432649016178
sg24
g37
sg25
F1
sg26
g19
sg27
NsbsS'waterDimer_Cs'
p40
g1
(g15
g3
NtRp41
(dp42
g18
g19
sg20
g11
sg21
I00
sg22
Nsg23
F-467.43713202503181
sg24
g40
sg25
F1
sg26
g19
sg27
NsbsS'hydrazine'
p43
g1
(g15
g3
NtRp44
(dp45
g18
g19
sg20
g11
sg21
I00
sg22
Nsg23
F72.759886907949948
sg24
g43
sg25
F1
sg26
g19
sg27
NsbsS'dichromium'
p46
g1
(g15
g3
NtRp47
(dp48
g18
g19
sg20
g11
sg21
I00
sg22
Nsg23
F1402.5346967500514
sg24
g46
sg25
F1
sg26
g19
sg27
NsbsS'carbonMonoxide'
p49
g1
(g15
g3
NtRp50
(dp51
g18
g19
sg20
g11
sg21
I00
sg22
Nsg23
F-58.640921727507873
sg24
g49
sg25
F1
sg26
g19
sg27
NsbsS'rhodiumComplex'
p52
g1
(g15
g3
NtRp53
(dp54
g18
g19
sg20
g11
sg21
I00
sg22
Nsg23
F260.42989738235832
sg24
g52
sg25
F1
sg26
g19
sg27
NsbsS'ammonia'
p55
g1
(g15
g3
NtRp56
(dp57
g18
g19
sg20
g11
sg21
I00
sg22
Nsg23
F-12.956099856692941
sg24
g55
sg25
F1
sg26
g19
sg27
NsbsS'ACANIL01'
p58
g1
(g15
g3
NtRp59
(dp60
g18
g19
sg20
g11
sg21
I00
sg22
Nsg23
F-77.368709010884984
sg24
g58
sg25
F1
sg26
g19
sg27
NsbsS'menthone'
p61
g1
(g15
g3
NtRp62
(dp63
g18
g19
sg20
g11
sg21
I00
sg22
Nsg23
F-304.58786497646008
sg24
g61
sg25
F1
sg26
g19
sg27
NsbsS'waterStretched'
p64
g1
(g15
g3
NtRp65
(dp66
g18
g19
sg20
g11
sg21
I00
sg22
Nsg23
F803.58116682889397
sg24
g64
sg25
F1
sg26
g19
sg27
NsbsS'napthalene'
p67
g1
(g15
g3
NtRp68
(dp69
g18
g19
sg20
g11
sg21
I00
sg22
Nsg23
F184.78745362258223
sg24
g67
sg25
F1
sg26
g19
sg27
NsbsS'dihydrogen'
p70
g1
(g15
g3
NtRp71
(dp72
g18
g19
sg20
g11
sg21
I00
sg22
Nsg23
F-87.632148422939267
sg24
g70
sg25
F1
sg26
g19
sg27
NsbsS'hydrogenPeroxide'
p73
g1
(g15
g3
NtRp74
(dp75
g18
g19
sg20
g11
sg21
I00
sg22
Nsg23
F-90.700714832740516
sg24
g73
sg25
F1
sg26
g19
sg27
NsbsS'ACHTAR10'
p76
g1
(g15
g3
NtRp77
(dp78
g18
g19
sg20
g11
sg21
I00
sg22
Nsg23
F-393.89265244589768
sg24
g76
sg25
F1
sg26
g19
sg27
NsbsS'caffeine'
p79
g1
(g15
g3
NtRp80
(dp81
g18
g19
sg20
g11
sg21
I00
sg22
Nsg23
F-105.13281777679256
sg24
g79
sg25
F1
sg26
g19
sg27
NsbsS'cadmiumComplex'
p82
g1
(g15
g3
NtRp83
(dp84
g18
g19
sg20
g11
sg21
I00
sg22
Nsg23
F6844.8972993705456
sg24
g82
sg25
F1
sg26
g19
sg27
NsbsS'hydroxylosulfane'
p85
g1
(g15
g3
NtRp86
(dp87
g18
g19
sg20
g11
sg21
I00
sg22
Nsg23
F-88.338334759590055
sg24
g85
sg25
F1
sg26
g19
sg27
NsbsS'nitromethane'
p88
g1
(g15
g3
NtRp89
(dp90
g18
g19
sg20
g11
sg21
I00
sg22
Nsg23
F-63.189351105625072
sg24
g88
sg25
F1
sg26
g19
sg27
NsbsS'histidine'
p91
g1
(g15
g3
NtRp92
(dp93
g18
g19
sg20
g11
sg21
I00
sg22
Nsg23
F-181.72654475423673
sg24
g91
sg25
F1
sg26
g19
sg27
NsbsS'allene'
p94
g1
(g15
g3
NtRp95
(dp96
g18
g19
sg20
g11
sg21
I00
sg22
Nsg23
F163.55650262152591
sg24
g94
sg25
F1
sg26
g19
sg27
NsbsS'hydrogenFluoride'
p97
g1
(g15
g3
NtRp98
(dp99
g18
g19
sg20
g11
sg21
I00
sg22
Nsg23
F-260.06579041867917
sg24
g97
sg25
F1
sg26
g19
sg27
NsbsS'difluorobenzene'
p100
g1
(g15
g3
NtRp101
(dp102
g18
g19
sg20
g11
sg21
I00
sg22
Nsg23
F-296.67392089530432
sg24
g100
sg25
F1
sg26
g19
sg27
NsbsS'benzidine'
p103
g1
(g15
g3
NtRp104
(dp105
g18
g19
sg20
g11
sg21
I00
sg22
Nsg23
F258.94083940712932
sg24
g103
sg25
F1
sg26
g19
sg27
NsbsS'hydraxobenzene'
p106
g1
(g15
g3
NtRp107
(dp108
g18
g19
sg20
g11
sg21
I00
sg22
Nsg23
F404.25822944740599
sg24
g106
sg25
F1
sg26
g19
sg27
NsbsS'benzaldehyde'
p109
g1
(g15
g3
NtRp110
(dp111
g18
g19
sg20
g11
sg21
I00
sg22
Nsg23
F-2.1652770970231145
sg24
g109
sg25
F1
sg26
g19
sg27
NsbsS'dinitrogen'
p112
g1
(g15
g3
NtRp113
(dp114
g18
g19
sg20
g11
sg21
I00
sg22
Nsg23
F172.57023948637453
sg24
g112
sg25
F1
sg26
g19
sg27
NsbsS'trisilacyclohexane'
p115
g1
(g15
g3
NtRp116
(dp117
g18
g19
sg20
g11
sg21
I00
sg22
Nsg23
F-220.93478081069071
sg24
g115
sg25
F1
sg26
g19
sg27
NsbsS'difluoronapthalene'
p118
g1
(g15
g3
NtRp119
(dp120
g18
g19
sg20
g11
sg21
I00
sg22
Nsg23
F-198.73188358410562
sg24
g118
sg25
F1
sg26
g19
sg27
NsbsS'ironDioxide'
p121
g1
(g15
g3
NtRp122
(dp123
g18
g19
sg20
g11
sg21
I00
sg22
Nsg23
F282.45604175375979
sg24
g121
sg25
F1
sg26
g19
sg27
NsbsS'ACTHCP'
p124
g1
(g15
g3
NtRp125
(dp126
g18
g19
sg20
g11
sg21
I00
sg22
Nsg23
F-206.29063581654034
sg24
g124
sg25
F1
sg26
g19
sg27
NsbsS'disilylether'
p127
g1
(g15
g3
NtRp128
(dp129
g18
g19
sg20
g11
sg21
I00
sg22
Nsg23
F-369.11033913195604
sg24
g127
sg25
F1
sg26
g19
sg27
NsbsS'formaldehyde'
p130
g1
(g15
g3
NtRp131
(dp132
g18
g19
sg20
g11
sg21
I00
sg22
Nsg23
F-87.203796607472071
sg24
g130
sg25
F1
sg26
g19
sg27
NsbsS'ethanol'
p133
g1
(g15
g3
NtRp134
(dp135
g18
g19
sg20
g11
sg21
I00
sg22
Nsg23
F-219.18035742212257
sg24
g133
sg25
F1
sg26
g19
sg27
NsbsS'furan'
p136
g1
(g15
g3
NtRp137
(dp138
g18
g19
sg20
g11
sg21
I00
sg22
Nsg23
F-12.860962208649395
sg24
g136
sg25
F1
sg26
g19
sg27
NsbsS'dimethylpentane'
p139
g1
(g15
g3
NtRp140
(dp141
g18
g19
sg20
g11
sg21
I00
sg22
Nsg23
F-159.59577021537655
sg24
g139
sg25
F1
sg26
g19
sg27
NsbsS'acetone'
p142
g1
(g15
g3
NtRp143
(dp144
g18
g19
sg20
g11
sg21
I00
sg22
Nsg23
F-221.44978444207203
sg24
g142
sg25
F1
sg26
g19
sg27
NsbsS'pterine'
p145
g1
(g15
g3
NtRp146
(dp147
g18
g19
sg20
g11
sg21
I00
sg22
Nsg23
F255.44344636208439
sg24
g145
sg25
F1
sg26
g19
sg27
NsbsS'water'
p148
g1
(g15
g3
NtRp149
(dp150
g18
g19
sg20
g11
sg21
I00
sg22
Nsg23
F-227.05409656134685
sg24
g148
sg25
F1
sg26
g19
sg27
NsbsS'neopentane'
p151
g1
(g15
g3
NtRp152
(dp153
g18
g19
sg20
g11
sg21
I00
sg22
Nsg23
F-143.20314188733457
sg24
g151
sg25
F1
sg26
g19
sg27
NsbsS'fch3cl'
p154
g1
(g15
g3
NtRp155
(dp156
g18
g19
sg20
g11
sg21
I00
sg22
Nsg23
F-359.29887141700993
sg24
g154
sg25
F1
sg26
g19
sg27
NsbsS'hydroxybicyclopentane'
p157
g1
(g15
g3
NtRp158
(dp159
g18
g19
sg20
g11
sg21
I00
sg22
Nsg23
F41.564084840411162
sg24
g157
sg25
F1
sg26
g19
sg27
NsbsS'chromiumCarbide'
p160
g1
(g15
g3
NtRp161
(dp162
g18
g19
sg20
g11
sg21
I00
sg22
Nsg23
F1111.5621746545567
sg24
g160
sg25
F1
sg26
g19
sg27
NsbsS'dipaladium'
p163
g1
(g15
g3
NtRp164
(dp165
g18
g19
sg20
g11
sg21
I00
sg22
Nsg23
F808.76509557707493
sg24
g163
sg25
F1
sg26
g19
sg27
NsbsS'misetiloxide'
p166
g1
(g15
g3
NtRp167
(dp168
g18
g19
sg20
g11
sg21
I00
sg22
Nsg23
F-197.58432010934428
sg24
g166
sg25
F1
sg26
g19
sg27
NsbsS'carbonMonoxideStretched'
p169
g1
(g15
g3
NtRp170
(dp171
g18
g19
sg20
g11
sg21
I00
sg22
Nsg23
F1203.3754607615085
sg24
g169
sg25
F1
sg26
g19
sg27
NsbsS'ethene'
p172
g1
(g15
g3
NtRp173
(dp174
g18
g19
sg20
g11
sg21
I00
sg22
Nsg23
F66.120901554393285
sg24
g172
sg25
F1
sg26
g19
sg27
NsbsS'ethane'
p175
g1
(g15
g3
NtRp176
(dp177
g18
g19
sg20
g11
sg21
I00
sg22
Nsg23
F-64.243841455498099
sg24
g175
sg25
F1
sg26
g19
sg27
NsbsS'pyridine'
p178
g1
(g15
g3
NtRp179
(dp180
g18
g19
sg20
g11
sg21
I00
sg22
Nsg23
F145.04248964727714
sg24
g178
sg25
F1
sg26
g19
sg27
NsbsS'difluoropyrazine'
p181
g1
(g15
g3
NtRp182
(dp183
g18
g19
sg20
g11
sg21
I00
sg22
Nsg23
F270.98096915001787
sg24
g181
sg25
F1
sg26
g19
sg27
NsbsS'histamine'
p184
g1
(g15
g3
NtRp185
(dp186
g18
g19
sg20
g11
sg21
I00
sg22
Nsg23
F694.46723216897965
sg24
g184
sg25
F1
sg26
g19
sg27
NsbsS'methane'
p187
g1
(g15
g3
NtRp188
(dp189
g18
g19
sg20
g11
sg21
I00
sg22
Nsg23
F-50.255094982033746
sg24
g187
sg25
F1
sg26
g19
sg27
Nsbssg8
(dp190
sg20
g4
sg24
g10
sbsS'rm1'
p191
g1
(g2
g3
NtRp192
(dp193
g6
(dp194
g14
g1
(g15
g3
NtRp195
(dp196
g18
g19
sg20
g192
sg21
I00
sg22
Nsg23
F98.344000982996079
sg24
g14
sg25
F1
sg26
g19
sg27
Nsbsg28
g1
(g15
g3
NtRp197
(dp198
g18
g19
sg20
g192
sg21
I00
sg22
Nsg23
F-7.0324321386201962
sg24
g28
sg25
F1
sg26
g19
sg27
Nsbsg31
g1
(g15
g3
NtRp199
(dp200
g18
g19
sg20
g192
sg21
I00
sg22
Nsg23
F207.35970396904531
sg24
g31
sg25
F1
sg26
g19
sg27
Nsbsg34
g1
(g15
g3
NtRp201
(dp202
g18
g19
sg20
g192
sg21
I00
sg22
Nsg23
F-394.13111722485093
sg24
g34
sg25
F1
sg26
g19
sg27
Nsbsg37
g1
(g15
g3
NtRp203
(dp204
g18
g19
sg20
g192
sg21
I00
sg22
Nsg23
F-470.13691761548131
sg24
g37
sg25
F1
sg26
g19
sg27
Nsbsg40
g1
(g15
g3
NtRp205
(dp206
g18
g19
sg20
g192
sg21
I00
sg22
Nsg23
F-487.353739645627
sg24
g40
sg25
F1
sg26
g19
sg27
Nsbsg43
g1
(g15
g3
NtRp207
(dp208
g18
g19
sg20
g192
sg21
I00
sg22
Nsg23
F104.7461039840169
sg24
g43
sg25
F1
sg26
g19
sg27
Nsbsg49
g1
(g15
g3
NtRp209
(dp210
g18
g19
sg20
g192
sg21
I00
sg22
Nsg23
F-58.000836164697716
sg24
g49
sg25
F1
sg26
g19
sg27
Nsbsg55
g1
(g15
g3
NtRp211
(dp212
g18
g19
sg20
g192
sg21
I00
sg22
Nsg23
F-28.618744901560582
sg24
g55
sg25
F1
sg26
g19
sg27
Nsbsg58
g1
(g15
g3
NtRp213
(dp214
g18
g19
sg20
g192
sg21
I00
sg22
Nsg23
F-68.757722972810555
sg24
g58
sg25
F1
sg26
g19
sg27
Nsbsg61
g1
(g15
g3
NtRp215
(dp216
g18
g19
sg20
g192
sg21
I00
sg22
Nsg23
F-291.11484843637078
sg24
g61
sg25
F1
sg26
g19
sg27
Nsbsg64
g1
(g15
g3
NtRp217
(dp218
g18
g19
sg20
g192
sg21
I00
sg22
Nsg23
F869.27922874708895
sg24
g64
sg25
F1
sg26
g19
sg27
Nsbsg67
g1
(g15
g3
NtRp219
(dp220
g18
g19
sg20
g192
sg21
I00
sg22
Nsg23
F173.29129431480169
sg24
g67
sg25
F1
sg26
g19
sg27
Nsbsg70
g1
(g15
g3
NtRp221
(dp222
g18
g19
sg20
g192
sg21
I00
sg22
Nsg23
F-7.2024969850956388
sg24
g70
sg25
F1
sg26
g19
sg27
Nsbsg73
g1
(g15
g3
NtRp223
(dp224
g18
g19
sg20
g192
sg21
I00
sg22
Nsg23
F-123.71738994119094
sg24
g73
sg25
F1
sg26
g19
sg27
Nsbsg76
g1
(g15
g3
NtRp225
(dp226
g18
g19
sg20
g192
sg21
I00
sg22
Nsg23
F-369.48095390703133
sg24
g76
sg25
F1
sg26
g19
sg27
Nsbsg79
g1
(g15
g3
NtRp227
(dp228
g18
g19
sg20
g192
sg21
I00
sg22
Nsg23
F-128.55308266981069
sg24
g79
sg25
F1
sg26
g19
sg27
Nsbsg85
g1
(g15
g3
NtRp229
(dp230
g18
g19
sg20
g192
sg21
I00
sg22
Nsg23
F-103.58474728929114
sg24
g85
sg25
F1
sg26
g19
sg27
Nsbsg88
g1
(g15
g3
NtRp231
(dp232
g18
g19
sg20
g192
sg21
I00
sg22
Nsg23
F-49.095151811504778
sg24
g88
sg25
F1
sg26
g19
sg27
Nsbsg91
g1
(g15
g3
NtRp233
(dp234
g18
g19
sg20
g192
sg21
I00
sg22
Nsg23
F-218.95129716444524
sg24
g91
sg25
F1
sg26
g19
sg27
Nsbsg94
g1
(g15
g3
NtRp235
(dp236
g18
g19
sg20
g192
sg21
I00
sg22
Nsg23
F192.60833084085539
sg24
g94
sg25
F1
sg26
g19
sg27
Nsbsg97
g1
(g15
g3
NtRp237
(dp238
g18
g19
sg20
g192
sg21
I00
sg22
Nsg23
F-283.35517514633165
sg24
g97
sg25
F1
sg26
g19
sg27
Nsbsg100
g1
(g15
g3
NtRp239
(dp240
g18
g19
sg20
g192
sg21
I00
sg22
Nsg23
F-283.11257422980617
sg24
g100
sg25
F1
sg26
g19
sg27
Nsbsg103
g1
(g15
g3
NtRp241
(dp242
g18
g19
sg20
g192
sg21
I00
sg22
Nsg23
F198.50261706386655
sg24
g103
sg25
F1
sg26
g19
sg27
Nsbsg106
g1
(g15
g3
NtRp243
(dp244
g18
g19
sg20
g192
sg21
I00
sg22
Nsg23
F408.09037337491719
sg24
g106
sg25
F1
sg26
g19
sg27
Nsbsg109
g1
(g15
g3
NtRp245
(dp246
g18
g19
sg20
g192
sg21
I00
sg22
Nsg23
F-23.32574172797743
sg24
g109
sg25
F1
sg26
g19
sg27
Nsbsg112
g1
(g15
g3
NtRp247
(dp248
g18
g19
sg20
g192
sg21
I00
sg22
Nsg23
F146.37853081064466
sg24
g112
sg25
F1
sg26
g19
sg27
Nsbsg118
g1
(g15
g3
NtRp249
(dp250
g18
g19
sg20
g192
sg21
I00
sg22
Nsg23
F-191.26429157030273
sg24
g118
sg25
F1
sg26
g19
sg27
Nsbsg124
g1
(g15
g3
NtRp251
(dp252
g18
g19
sg20
g192
sg21
I00
sg22
Nsg23
F-241.91213680713761
sg24
g124
sg25
F1
sg26
g19
sg27
Nsbsg148
g1
(g15
g3
NtRp253
(dp254
g18
g19
sg20
g192
sg21
I00
sg22
Nsg23
F-239.00146727523463
sg24
g148
sg25
F1
sg26
g19
sg27
Nsbsg130
g1
(g15
g3
NtRp255
(dp256
g18
g19
sg20
g192
sg21
I00
sg22
Nsg23
F-123.02834516177522
sg24
g130
sg25
F1
sg26
g19
sg27
Nsbsg133
g1
(g15
g3
NtRp257
(dp258
g18
g19
sg20
g192
sg21
I00
sg22
Nsg23
F-223.68936822592423
sg24
g133
sg25
F1
sg26
g19
sg27
Nsbsg136
g1
(g15
g3
NtRp259
(dp260
g18
g19
sg20
g192
sg21
I00
sg22
Nsg23
F-13.715205020029355
sg24
g136
sg25
F1
sg26
g19
sg27
Nsbsg139
g1
(g15
g3
NtRp261
(dp262
g18
g19
sg20
g192
sg21
I00
sg22
Nsg23
F-162.14123134687327
sg24
g139
sg25
F1
sg26
g19
sg27
Nsbsg142
g1
(g15
g3
NtRp263
(dp264
g18
g19
sg20
g192
sg21
I00
sg22
Nsg23
F-214.07557080917536
sg24
g142
sg25
F1
sg26
g19
sg27
Nsbsg145
g1
(g15
g3
NtRp265
(dp266
g18
g19
sg20
g192
sg21
I00
sg22
Nsg23
F183.91853135924782
sg24
g145
sg25
F1
sg26
g19
sg27
Nsbsg151
g1
(g15
g3
NtRp267
(dp268
g18
g19
sg20
g192
sg21
I00
sg22
Nsg23
F-154.63490941409063
sg24
g151
sg25
F1
sg26
g19
sg27
Nsbsg154
g1
(g15
g3
NtRp269
(dp270
g18
g19
sg20
g192
sg21
I00
sg22
Nsg23
F-249.61656374907454
sg24
g154
sg25
F1
sg26
g19
sg27
Nsbsg157
g1
(g15
g3
NtRp271
(dp272
g18
g19
sg20
g192
sg21
I00
sg22
Nsg23
F72.729516690930637
sg24
g157
sg25
F1
sg26
g19
sg27
Nsbsg166
g1
(g15
g3
NtRp273
(dp274
g18
g19
sg20
g192
sg21
I00
sg22
Nsg23
F-173.00730489343914
sg24
g166
sg25
F1
sg26
g19
sg27
Nsbsg169
g1
(g15
g3
NtRp275
(dp276
g18
g19
sg20
g192
sg21
I00
sg22
Nsg23
F1199.5187496251976
sg24
g169
sg25
F1
sg26
g19
sg27
Nsbsg172
g1
(g15
g3
NtRp277
(dp278
g18
g19
sg20
g192
sg21
I00
sg22
Nsg23
F62.243850463978497
sg24
g172
sg25
F1
sg26
g19
sg27
Nsbsg175
g1
(g15
g3
NtRp279
(dp280
g18
g19
sg20
g192
sg21
I00
sg22
Nsg23
F-68.794918103629655
sg24
g175
sg25
F1
sg26
g19
sg27
Nsbsg178
g1
(g15
g3
NtRp281
(dp282
g18
g19
sg20
g192
sg21
I00
sg22
Nsg23
F131.10573973086937
sg24
g178
sg25
F1
sg26
g19
sg27
Nsbsg181
g1
(g15
g3
NtRp283
(dp284
g18
g19
sg20
g192
sg21
I00
sg22
Nsg23
F245.05067678545294
sg24
g181
sg25
F1
sg26
g19
sg27
Nsbsg184
g1
(g15
g3
NtRp285
(dp286
g18
g19
sg20
g192
sg21
I00
sg22
Nsg23
F642.68216072221935
sg24
g184
sg25
F1
sg26
g19
sg27
Nsbsg187
g1
(g15
g3
NtRp287
(dp288
g18
g19
sg20
g192
sg21
I00
sg22
Nsg23
F-57.1103558820488
sg24
g187
sg25
F1
sg26
g19
sg27
Nsbssg8
(dp289
sg20
g4
sg24
g191
sbsS'pm3'
p290
g1
(g2
g3
NtRp291
(dp292
g6
(dp293
g14
g1
(g15
g3
NtRp294
(dp295
g18
g19
sg20
g291
sg21
I00
sg22
Nsg23
F100.13900828844345
sg24
g14
sg25
F1
sg26
g19
sg27
Nsbsg28
g1
(g15
g3
NtRp296
(dp297
g18
g19
sg20
g291
sg21
I00
sg22
Nsg23
F22.044056180844578
sg24
g28
sg25
F1
sg26
g19
sg27
Nsbsg31
g1
(g15
g3
NtRp298
(dp299
g18
g19
sg20
g291
sg21
I00
sg22
Nsg23
F229.24662067720783
sg24
g31
sg25
F1
sg26
g19
sg27
Nsbsg34
g1
(g15
g3
NtRp300
(dp301
g18
g19
sg20
g291
sg21
I00
sg22
Nsg23
F-393.84093074912414
sg24
g34
sg25
F1
sg26
g19
sg27
Nsbsg37
g1
(g15
g3
NtRp302
(dp303
g18
g19
sg20
g291
sg21
I00
sg22
Nsg23
F-435.66814495188413
sg24
g37
sg25
F1
sg26
g19
sg27
Nsbsg40
g1
(g15
g3
NtRp304
(dp305
g18
g19
sg20
g291
sg21
I00
sg22
Nsg23
F-456.0833899073653
sg24
g40
sg25
F1
sg26
g19
sg27
Nsbsg43
g1
(g15
g3
NtRp306
(dp307
g18
g19
sg20
g291
sg21
I00
sg22
Nsg23
F87.759616646554178
sg24
g43
sg25
F1
sg26
g19
sg27
Nsbsg49
g1
(g15
g3
NtRp308
(dp309
g18
g19
sg20
g291
sg21
I00
sg22
Nsg23
F-82.685222270833478
sg24
g49
sg25
F1
sg26
g19
sg27
Nsbsg55
g1
(g15
g3
NtRp310
(dp311
g18
g19
sg20
g291
sg21
I00
sg22
Nsg23
F-11.076892119938403
sg24
g55
sg25
F1
sg26
g19
sg27
Nsbsg58
g1
(g15
g3
NtRp312
(dp313
g18
g19
sg20
g291
sg21
I00
sg22
Nsg23
F-50.641521234351323
sg24
g58
sg25
F1
sg26
g19
sg27
Nsbsg61
g1
(g15
g3
NtRp314
(dp315
g18
g19
sg20
g291
sg21
I00
sg22
Nsg23
F-284.05667213053908
sg24
g61
sg25
F1
sg26
g19
sg27
Nsbsg64
g1
(g15
g3
NtRp316
(dp317
g18
g19
sg20
g291
sg21
I00
sg22
Nsg23
F803.04301559051953
sg24
g64
sg25
F1
sg26
g19
sg27
Nsbsg67
g1
(g15
g3
NtRp318
(dp319
g18
g19
sg20
g291
sg21
I00
sg22
Nsg23
F184.82837076967468
sg24
g67
sg25
F1
sg26
g19
sg27
Nsbsg70
g1
(g15
g3
NtRp320
(dp321
g18
g19
sg20
g291
sg21
I00
sg22
Nsg23
F-55.42211775840584
sg24
g70
sg25
F1
sg26
g19
sg27
Nsbsg73
g1
(g15
g3
NtRp322
(dp323
g18
g19
sg20
g291
sg21
I00
sg22
Nsg23
F-162.5615082398229
sg24
g73
sg25
F1
sg26
g19
sg27
Nsbsg76
g1
(g15
g3
NtRp324
(dp325
g18
g19
sg20
g291
sg21
I00
sg22
Nsg23
F-368.6139341364393
sg24
g76
sg25
F1
sg26
g19
sg27
Nsbsg79
g1
(g15
g3
NtRp326
(dp327
g18
g19
sg20
g291
sg21
I00
sg22
Nsg23
F-99.429336056610296
sg24
g79
sg25
F1
sg26
g19
sg27
Nsbsg85
g1
(g15
g3
NtRp328
(dp329
g18
g19
sg20
g291
sg21
I00
sg22
Nsg23
F-108.76461587861618
sg24
g85
sg25
F1
sg26
g19
sg27
Nsbsg88
g1
(g15
g3
NtRp330
(dp331
g18
g19
sg20
g291
sg21
I00
sg22
Nsg23
F-65.449549243850356
sg24
g88
sg25
F1
sg26
g19
sg27
Nsbsg91
g1
(g15
g3
NtRp332
(dp333
g18
g19
sg20
g291
sg21
I00
sg22
Nsg23
F-179.77068756228763
sg24
g91
sg25
F1
sg26
g19
sg27
Nsbsg94
g1
(g15
g3
NtRp334
(dp335
g18
g19
sg20
g291
sg21
I00
sg22
Nsg23
F202.56866062076253
sg24
g94
sg25
F1
sg26
g19
sg27
Nsbsg97
g1
(g15
g3
NtRp336
(dp337
g18
g19
sg20
g291
sg21
I00
sg22
Nsg23
F-260.75963065664502
sg24
g97
sg25
F1
sg26
g19
sg27
Nsbsg100
g1
(g15
g3
NtRp338
(dp339
g18
g19
sg20
g291
sg21
I00
sg22
Nsg23
F-259.53574430956667
sg24
g100
sg25
F1
sg26
g19
sg27
Nsbsg103
g1
(g15
g3
NtRp340
(dp341
g18
g19
sg20
g291
sg21
I00
sg22
Nsg23
F298.09366938552319
sg24
g103
sg25
F1
sg26
g19
sg27
Nsbsg106
g1
(g15
g3
NtRp342
(dp343
g18
g19
sg20
g291
sg21
I00
sg22
Nsg23
F446.79159112144362
sg24
g106
sg25
F1
sg26
g19
sg27
Nsbsg109
g1
(g15
g3
NtRp344
(dp345
g18
g19
sg20
g291
sg21
I00
sg22
Nsg23
F-32.305269510908225
sg24
g109
sg25
F1
sg26
g19
sg27
Nsbsg112
g1
(g15
g3
NtRp346
(dp347
g18
g19
sg20
g291
sg21
I00
sg22
Nsg23
F73.942916843700715
sg24
g112
sg25
F1
sg26
g19
sg27
Nsbsg115
g1
(g15
g3
NtRp348
(dp349
g18
g19
sg20
g291
sg21
I00
sg22
Nsg23
F-143.46182806276397
sg24
g115
sg25
F1
sg26
g19
sg27
Nsbsg118
g1
(g15
g3
NtRp350
(dp351
g18
g19
sg20
g291
sg21
I00
sg22
Nsg23
F-168.07729593836183
sg24
g118
sg25
F1
sg26
g19
sg27
Nsbsg124
g1
(g15
g3
NtRp352
(dp353
g18
g19
sg20
g291
sg21
I00
sg22
Nsg23
F-171.05809356906116
sg24
g124
sg25
F1
sg26
g19
sg27
Nsbsg127
g1
(g15
g3
NtRp354
(dp355
g18
g19
sg20
g291
sg21
I00
sg22
Nsg23
F-252.92552685032919
sg24
g127
sg25
F1
sg26
g19
sg27
Nsbsg130
g1
(g15
g3
NtRp356
(dp357
g18
g19
sg20
g291
sg21
I00
sg22
Nsg23
F-142.30603278533462
sg24
g130
sg25
F1
sg26
g19
sg27
Nsbsg133
g1
(g15
g3
NtRp358
(dp359
g18
g19
sg20
g291
sg21
I00
sg22
Nsg23
F-229.25236929748277
sg24
g133
sg25
F1
sg26
g19
sg27
Nsbsg136
g1
(g15
g3
NtRp360
(dp361
g18
g19
sg20
g291
sg21
I00
sg22
Nsg23
F-1.3529945586116341
sg24
g136
sg25
F1
sg26
g19
sg27
Nsbsg139
g1
(g15
g3
NtRp362
(dp363
g18
g19
sg20
g291
sg21
I00
sg22
Nsg23
F-165.20890421760473
sg24
g139
sg25
F1
sg26
g19
sg27
Nsbsg142
g1
(g15
g3
NtRp364
(dp365
g18
g19
sg20
g291
sg21
I00
sg22
Nsg23
F-216.97482047115392
sg24
g142
sg25
F1
sg26
g19
sg27
Nsbsg145
g1
(g15
g3
NtRp366
(dp367
g18
g19
sg20
g291
sg21
I00
sg22
Nsg23
F193.32237576971454
sg24
g145
sg25
F1
sg26
g19
sg27
Nsbsg148
g1
(g15
g3
NtRp368
(dp369
g18
g19
sg20
g291
sg21
I00
sg22
Nsg23
F-222.4099255676486
sg24
g148
sg25
F1
sg26
g19
sg27
Nsbsg151
g1
(g15
g3
NtRp370
(dp371
g18
g19
sg20
g291
sg21
I00
sg22
Nsg23
F-143.79599053094708
sg24
g151
sg25
F1
sg26
g19
sg27
Nsbsg154
g1
(g15
g3
NtRp372
(dp373
g18
g19
sg20
g291
sg21
I00
sg22
Nsg23
F-218.97635560292701
sg24
g154
sg25
F1
sg26
g19
sg27
Nsbsg157
g1
(g15
g3
NtRp374
(dp375
g18
g19
sg20
g291
sg21
I00
sg22
Nsg23
F76.951922821627861
sg24
g157
sg25
F1
sg26
g19
sg27
Nsbsg166
g1
(g15
g3
NtRp376
(dp377
g18
g19
sg20
g291
sg21
I00
sg22
Nsg23
F-173.67852886600093
sg24
g166
sg25
F1
sg26
g19
sg27
Nsbsg169
g1
(g15
g3
NtRp378
(dp379
g18
g19
sg20
g291
sg21
I00
sg22
Nsg23
F1227.8227608204254
sg24
g169
sg25
F1
sg26
g19
sg27
Nsbsg172
g1
(g15
g3
NtRp380
(dp381
g18
g19
sg20
g291
sg21
I00
sg22
Nsg23
F69.637190342093589
sg24
g172
sg25
F1
sg26
g19
sg27
Nsbsg175
g1
(g15
g3
NtRp382
(dp383
g18
g19
sg20
g291
sg21
I00
sg22
Nsg23
F-72.041784417341717
sg24
g175
sg25
F1
sg26
g19
sg27
Nsbsg178
g1
(g15
g3
NtRp384
(dp385
g18
g19
sg20
g291
sg21
I00
sg22
Nsg23
F127.71945581116188
sg24
g178
sg25
F1
sg26
g19
sg27
Nsbsg181
g1
(g15
g3
NtRp386
(dp387
g18
g19
sg20
g291
sg21
I00
sg22
Nsg23
F225.50814548280869
sg24
g181
sg25
F1
sg26
g19
sg27
Nsbsg184
g1
(g15
g3
NtRp388
(dp389
g18
g19
sg20
g291
sg21
I00
sg22
Nsg23
F733.30815523615115
sg24
g184
sg25
F1
sg26
g19
sg27
Nsbsg187
g1
(g15
g3
NtRp390
(dp391
g18
g19
sg20
g291
sg21
I00
sg22
Nsg23
F-53.205655588792567
sg24
g187
sg25
F1
sg26
g19
sg27
Nsbssg8
(dp392
sg20
g4
sg24
g290
sbsS'pddgmndo'
p393
g1
(g2
g3
NtRp394
(dp395
g6
(dp396
g14
g1
(g15
g3
NtRp397
(dp398
g18
g19
sg20
g394
sg21
I00
sg22
Nsg23
F113.13219746827343
sg24
g14
sg25
F1
sg26
g19
sg27
Nsbsg28
g1
(g15
g3
NtRp399
(dp400
g18
g19
sg20
g394
sg21
I00
sg22
Nsg23
F-19.372435343363946
sg24
g28
sg25
F1
sg26
g19
sg27
Nsbsg31
g1
(g15
g3
NtRp401
(dp402
g18
g19
sg20
g394
sg21
I00
sg22
Nsg23
F229.57596181893604
sg24
g31
sg25
F1
sg26
g19
sg27
Nsbsg34
g1
(g15
g3
NtRp403
(dp404
g18
g19
sg20
g394
sg21
I00
sg22
Nsg23
F-393.50013541865081
sg24
g34
sg25
F1
sg26
g19
sg27
Nsbsg37
g1
(g15
g3
NtRp405
(dp406
g18
g19
sg20
g394
sg21
I00
sg22
Nsg23
F-442.89844556367791
sg24
g37
sg25
F1
sg26
g19
sg27
Nsbsg40
g1
(g15
g3
NtRp407
(dp408
g18
g19
sg20
g394
sg21
I00
sg22
Nsg23
F-398.47306031168739
sg24
g40
sg25
F1
sg26
g19
sg27
Nsbsg43
g1
(g15
g3
NtRp409
(dp410
g18
g19
sg20
g394
sg21
I00
sg22
Nsg23
F81.435106177808194
sg24
g43
sg25
F1
sg26
g19
sg27
Nsbsg49
g1
(g15
g3
NtRp411
(dp412
g18
g19
sg20
g394
sg21
I00
sg22
Nsg23
F-83.920840922446061
sg24
g49
sg25
F1
sg26
g19
sg27
Nsbsg55
g1
(g15
g3
NtRp413
(dp414
g18
g19
sg20
g394
sg21
I00
sg22
Nsg23
F-42.024502080716012
sg24
g55
sg25
F1
sg26
g19
sg27
Nsbsg58
g1
(g15
g3
NtRp415
(dp416
g18
g19
sg20
g394
sg21
I00
sg22
Nsg23
F-25.806710921625704
sg24
g58
sg25
F1
sg26
g19
sg27
Nsbsg61
g1
(g15
g3
NtRp417
(dp418
g18
g19
sg20
g394
sg21
I00
sg22
Nsg23
F-303.92340029190353
sg24
g61
sg25
F1
sg26
g19
sg27
Nsbsg64
g1
(g15
g3
NtRp419
(dp420
g18
g19
sg20
g394
sg21
I00
sg22
Nsg23
F961.40315525115773
sg24
g64
sg25
F1
sg26
g19
sg27
Nsbsg67
g1
(g15
g3
NtRp421
(dp422
g18
g19
sg20
g394
sg21
I00
sg22
Nsg23
F199.06892607886471
sg24
g67
sg25
F1
sg26
g19
sg27
Nsbsg70
g1
(g15
g3
NtRp423
(dp424
g18
g19
sg20
g394
sg21
I00
sg22
Nsg23
F-2.214433695739082
sg24
g70
sg25
F1
sg26
g19
sg27
Nsbsg73
g1
(g15
g3
NtRp425
(dp426
g18
g19
sg20
g394
sg21
I00
sg22
Nsg23
F-143.19557448353311
sg24
g73
sg25
F1
sg26
g19
sg27
Nsbsg76
g1
(g15
g3
NtRp427
(dp428
g18
g19
sg20
g394
sg21
I00
sg22
Nsg23
F-369.3172127248842
sg24
g76
sg25
F1
sg26
g19
sg27
Nsbsg79
g1
(g15
g3
NtRp429
(dp430
g18
g19
sg20
g394
sg21
I00
sg22
Nsg23
F-106.83691976493839
sg24
g79
sg25
F1
sg26
g19
sg27
Nsbsg88
g1
(g15
g3
NtRp431
(dp432
g18
g19
sg20
g394
sg21
I00
sg22
Nsg23
F-46.695499332602083
sg24
g88
sg25
F1
sg26
g19
sg27
Nsbsg91
g1
(g15
g3
NtRp433
(dp434
g18
g19
sg20
g394
sg21
I00
sg22
Nsg23
F-195.41600494146149
sg24
g91
sg25
F1
sg26
g19
sg27
Nsbsg94
g1
(g15
g3
NtRp435
(dp436
g18
g19
sg20
g394
sg21
I00
sg22
Nsg23
F185.00152750659748
sg24
g94
sg25
F1
sg26
g19
sg27
Nsbsg97
g1
(g15
g3
NtRp437
(dp438
g18
g19
sg20
g394
sg21
I00
sg22
Nsg23
F-235.14498930091176
sg24
g97
sg25
F1
sg26
g19
sg27
Nsbsg100
g1
(g15
g3
NtRp439
(dp440
g18
g19
sg20
g394
sg21
I00
sg22
Nsg23
F-261.27563467532946
sg24
g100
sg25
F1
sg26
g19
sg27
Nsbsg103
g1
(g15
g3
NtRp441
(dp442
g18
g19
sg20
g394
sg21
I00
sg22
Nsg23
F257.88029531419488
sg24
g103
sg25
F1
sg26
g19
sg27
Nsbsg106
g1
(g15
g3
NtRp443
(dp444
g18
g19
sg20
g394
sg21
I00
sg22
Nsg23
F442.88854929146737
sg24
g106
sg25
F1
sg26
g19
sg27
Nsbsg109
g1
(g15
g3
NtRp445
(dp446
g18
g19
sg20
g394
sg21
I00
sg22
Nsg23
F-22.413606222277359
sg24
g109
sg25
F1
sg26
g19
sg27
Nsbsg112
g1
(g15
g3
NtRp447
(dp448
g18
g19
sg20
g394
sg21
I00
sg22
Nsg23
F110.86965221438226
sg24
g112
sg25
F1
sg26
g19
sg27
Nsbsg118
g1
(g15
g3
NtRp449
(dp450
g18
g19
sg20
g394
sg21
I00
sg22
Nsg23
F-175.93038403514134
sg24
g118
sg25
F1
sg26
g19
sg27
Nsbsg148
g1
(g15
g3
NtRp451
(dp452
g18
g19
sg20
g394
sg21
I00
sg22
Nsg23
F-229.22872602122402
sg24
g148
sg25
F1
sg26
g19
sg27
Nsbsg130
g1
(g15
g3
NtRp453
(dp454
g18
g19
sg20
g394
sg21
I00
sg22
Nsg23
F-128.49498037317318
sg24
g130
sg25
F1
sg26
g19
sg27
Nsbsg133
g1
(g15
g3
NtRp455
(dp456
g18
g19
sg20
g394
sg21
I00
sg22
Nsg23
F-217.03318719894827
sg24
g133
sg25
F1
sg26
g19
sg27
Nsbsg136
g1
(g15
g3
NtRp457
(dp458
g18
g19
sg20
g394
sg21
I00
sg22
Nsg23
F-20.042127201722483
sg24
g136
sg25
F1
sg26
g19
sg27
Nsbsg139
g1
(g15
g3
NtRp459
(dp460
g18
g19
sg20
g394
sg21
I00
sg22
Nsg23
F-179.93628030531792
sg24
g139
sg25
F1
sg26
g19
sg27
Nsbsg142
g1
(g15
g3
NtRp461
(dp462
g18
g19
sg20
g394
sg21
I00
sg22
Nsg23
F-230.5718599995738
sg24
g142
sg25
F1
sg26
g19
sg27
Nsbsg145
g1
(g15
g3
NtRp463
(dp464
g18
g19
sg20
g394
sg21
I00
sg22
Nsg23
F165.77152701412373
sg24
g145
sg25
F1
sg26
g19
sg27
Nsbsg151
g1
(g15
g3
NtRp465
(dp466
g18
g19
sg20
g394
sg21
I00
sg22
Nsg23
F-180.1406153950594
sg24
g151
sg25
F1
sg26
g19
sg27
Nsbsg154
g1
(g15
g3
NtRp467
(dp468
g18
g19
sg20
g394
sg21
I00
sg22
Nsg23
F-413.57161882372242
sg24
g154
sg25
F1
sg26
g19
sg27
Nsbsg157
g1
(g15
g3
NtRp469
(dp470
g18
g19
sg20
g394
sg21
I00
sg22
Nsg23
F86.48594105633147
sg24
g157
sg25
F1
sg26
g19
sg27
Nsbsg166
g1
(g15
g3
NtRp471
(dp472
g18
g19
sg20
g394
sg21
I00
sg22
Nsg23
F-199.73496632269237
sg24
g166
sg25
F1
sg26
g19
sg27
Nsbsg172
g1
(g15
g3
NtRp473
(dp474
g18
g19
sg20
g394
sg21
I00
sg22
Nsg23
F59.59375263009963
sg24
g172
sg25
F1
sg26
g19
sg27
Nsbsg175
g1
(g15
g3
NtRp475
(dp476
g18
g19
sg20
g394
sg21
I00
sg22
Nsg23
F-84.500729827641081
sg24
g175
sg25
F1
sg26
g19
sg27
Nsbsg178
g1
(g15
g3
NtRp477
(dp478
g18
g19
sg20
g394
sg21
I00
sg22
Nsg23
F142.5201470187946
sg24
g178
sg25
F1
sg26
g19
sg27
Nsbsg181
g1
(g15
g3
NtRp479
(dp480
g18
g19
sg20
g394
sg21
I00
sg22
Nsg23
F217.4070248778786
sg24
g181
sg25
F1
sg26
g19
sg27
Nsbsg184
g1
(g15
g3
NtRp481
(dp482
g18
g19
sg20
g394
sg21
I00
sg22
Nsg23
F747.04106765350434
sg24
g184
sg25
F1
sg26
g19
sg27
Nsbsg187
g1
(g15
g3
NtRp483
(dp484
g18
g19
sg20
g394
sg21
I00
sg22
Nsg23
F-70.634282543226561
sg24
g187
sg25
F1
sg26
g19
sg27
Nsbssg8
(dp485
sg20
g4
sg24
g393
sbsS'mndo'
p486
g1
(g2
g3
NtRp487
(dp488
g6
(dp489
g14
g1
(g15
g3
NtRp490
(dp491
g18
g19
sg20
g487
sg21
I00
sg22
Nsg23
F93.628437043708843
sg24
g14
sg25
F1
sg26
g19
sg27
Nsbsg28
g1
(g15
g3
NtRp492
(dp493
g18
g19
sg20
g487
sg21
I00
sg22
Nsg23
F5.5522827465226499
sg24
g28
sg25
F1
sg26
g19
sg27
Nsbsg31
g1
(g15
g3
NtRp494
(dp495
g18
g19
sg20
g487
sg21
I00
sg22
Nsg23
F254.42444005751821
sg24
g31
sg25
F1
sg26
g19
sg27
Nsbsg34
g1
(g15
g3
NtRp496
(dp497
g18
g19
sg20
g487
sg21
I00
sg22
Nsg23
F-389.62847708580966
sg24
g34
sg25
F1
sg26
g19
sg27
Nsbsg37
g1
(g15
g3
NtRp498
(dp499
g18
g19
sg20
g487
sg21
I00
sg22
Nsg23
F-464.77123581383694
sg24
g37
sg25
F1
sg26
g19
sg27
Nsbsg40
g1
(g15
g3
NtRp500
(dp501
g18
g19
sg20
g487
sg21
I00
sg22
Nsg23
F-458.10867068585429
sg24
g40
sg25
F1
sg26
g19
sg27
Nsbsg43
g1
(g15
g3
NtRp502
(dp503
g18
g19
sg20
g487
sg21
I00
sg22
Nsg23
F69.194798673407718
sg24
g43
sg25
F1
sg26
g19
sg27
Nsbsg49
g1
(g15
g3
NtRp504
(dp505
g18
g19
sg20
g487
sg21
I00
sg22
Nsg23
F-19.11606794361203
sg24
g49
sg25
F1
sg26
g19
sg27
Nsbsg55
g1
(g15
g3
NtRp506
(dp507
g18
g19
sg20
g487
sg21
I00
sg22
Nsg23
F-21.933967658900727
sg24
g55
sg25
F1
sg26
g19
sg27
Nsbsg58
g1
(g15
g3
NtRp508
(dp509
g18
g19
sg20
g487
sg21
I00
sg22
Nsg23
F-7.1527009244933311
sg24
g58
sg25
F1
sg26
g19
sg27
Nsbsg61
g1
(g15
g3
NtRp510
(dp511
g18
g19
sg20
g487
sg21
I00
sg22
Nsg23
F-237.15357887149133
sg24
g61
sg25
F1
sg26
g19
sg27
Nsbsg64
g1
(g15
g3
NtRp512
(dp513
g18
g19
sg20
g487
sg21
I00
sg22
Nsg23
F1006.0635062477404
sg24
g64
sg25
F1
sg26
g19
sg27
Nsbsg67
g1
(g15
g3
NtRp514
(dp515
g18
g19
sg20
g487
sg21
I00
sg22
Nsg23
F187.30108164917038
sg24
g67
sg25
F1
sg26
g19
sg27
Nsbsg70
g1
(g15
g3
NtRp516
(dp517
g18
g19
sg20
g487
sg21
I00
sg22
Nsg23
F3.4934757824294782
sg24
g70
sg25
F1
sg26
g19
sg27
Nsbsg73
g1
(g15
g3
NtRp518
(dp519
g18
g19
sg20
g487
sg21
I00
sg22
Nsg23
F-104.87687467707205
sg24
g73
sg25
F1
sg26
g19
sg27
Nsbsg76
g1
(g15
g3
NtRp520
(dp521
g18
g19
sg20
g487
sg21
I00
sg22
Nsg23
F-355.41526098808168
sg24
g76
sg25
F1
sg26
g19
sg27
Nsbsg79
g1
(g15
g3
NtRp522
(dp523
g18
g19
sg20
g487
sg21
I00
sg22
Nsg23
F-38.588540776406624
sg24
g79
sg25
F1
sg26
g19
sg27
Nsbsg85
g1
(g15
g3
NtRp524
(dp525
g18
g19
sg20
g487
sg21
I00
sg22
Nsg23
F-113.39911401898856
sg24
g85
sg25
F1
sg26
g19
sg27
Nsbsg88
g1
(g15
g3
NtRp526
(dp527
g18
g19
sg20
g487
sg21
I00
sg22
Nsg23
F22.589205997165539
sg24
g88
sg25
F1
sg26
g19
sg27
Nsbsg91
g1
(g15
g3
NtRp528
(dp529
g18
g19
sg20
g487
sg21
I00
sg22
Nsg23
F-183.05291303070351
sg24
g91
sg25
F1
sg26
g19
sg27
Nsbsg94
g1
(g15
g3
NtRp530
(dp531
g18
g19
sg20
g487
sg21
I00
sg22
Nsg23
F189.05996025666386
sg24
g94
sg25
F1
sg26
g19
sg27
Nsbsg97
g1
(g15
g3
NtRp532
(dp533
g18
g19
sg20
g487
sg21
I00
sg22
Nsg23
F-243.92654822588659
sg24
g97
sg25
F1
sg26
g19
sg27
Nsbsg100
g1
(g15
g3
NtRp534
(dp535
g18
g19
sg20
g487
sg21
I00
sg22
Nsg23
F-281.39971295779583
sg24
g100
sg25
F1
sg26
g19
sg27
Nsbsg103
g1
(g15
g3
NtRp536
(dp537
g18
g19
sg20
g487
sg21
I00
sg22
Nsg23
F342.41546289119503
sg24
g103
sg25
F1
sg26
g19
sg27
Nsbsg106
g1
(g15
g3
NtRp538
(dp539
g18
g19
sg20
g487
sg21
I00
sg22
Nsg23
F474.49851593781125
sg24
g106
sg25
F1
sg26
g19
sg27
Nsbsg109
g1
(g15
g3
NtRp540
(dp541
g18
g19
sg20
g487
sg21
I00
sg22
Nsg23
F-27.785316329050417
sg24
g109
sg25
F1
sg26
g19
sg27
Nsbsg112
g1
(g15
g3
NtRp542
(dp543
g18
g19
sg20
g487
sg21
I00
sg22
Nsg23
F36.243587092603832
sg24
g112
sg25
F1
sg26
g19
sg27
Nsbsg115
g1
(g15
g3
NtRp544
(dp545
g18
g19
sg20
g487
sg21
I00
sg22
Nsg23
F-160.47526893851423
sg24
g115
sg25
F1
sg26
g19
sg27
Nsbsg118
g1
(g15
g3
NtRp546
(dp547
g18
g19
sg20
g487
sg21
I00
sg22
Nsg23
F-173.77963146104685
sg24
g118
sg25
F1
sg26
g19
sg27
Nsbsg124
g1
(g15
g3
NtRp548
(dp549
g18
g19
sg20
g487
sg21
I00
sg22
Nsg23
F-199.09687868467682
sg24
g124
sg25
F1
sg26
g19
sg27
Nsbsg127
g1
(g15
g3
NtRp550
(dp551
g18
g19
sg20
g487
sg21
I00
sg22
Nsg23
F-455.62900044294292
sg24
g127
sg25
F1
sg26
g19
sg27
Nsbsg130
g1
(g15
g3
NtRp552
(dp553
g18
g19
sg20
g487
sg21
I00
sg22
Nsg23
F-136.13763547285956
sg24
g130
sg25
F1
sg26
g19
sg27
Nsbsg133
g1
(g15
g3
NtRp554
(dp555
g18
g19
sg20
g487
sg21
I00
sg22
Nsg23
F-252.58369625841047
sg24
g133
sg25
F1
sg26
g19
sg27
Nsbsg136
g1
(g15
g3
NtRp556
(dp557
g18
g19
sg20
g487
sg21
I00
sg22
Nsg23
F-19.000667552344638
sg24
g136
sg25
F1
sg26
g19
sg27
Nsbsg139
g1
(g15
g3
NtRp558
(dp559
g18
g19
sg20
g487
sg21
I00
sg22
Nsg23
F-129.48306149814525
sg24
g139
sg25
F1
sg26
g19
sg27
Nsbsg142
g1
(g15
g3
NtRp560
(dp561
g18
g19
sg20
g487
sg21
I00
sg22
Nsg23
F-205.51977175672482
sg24
g142
sg25
F1
sg26
g19
sg27
Nsbsg145
g1
(g15
g3
NtRp562
(dp563
g18
g19
sg20
g487
sg21
I00
sg22
Nsg23
F229.53917380662216
sg24
g145
sg25
F1
sg26
g19
sg27
Nsbsg148
g1
(g15
g3
NtRp564
(dp565
g18
g19
sg20
g487
sg21
I00
sg22
Nsg23
F-252.48030685736251
sg24
g148
sg25
F1
sg26
g19
sg27
Nsbsg151
g1
(g15
g3
NtRp566
(dp567
g18
g19
sg20
g487
sg21
I00
sg22
Nsg23
F-102.39019211451529
sg24
g151
sg25
F1
sg26
g19
sg27
Nsbsg154
g1
(g15
g3
NtRp568
(dp569
g18
g19
sg20
g487
sg21
I00
sg22
Nsg23
F-177.27996706549291
sg24
g154
sg25
F1
sg26
g19
sg27
Nsbsg157
g1
(g15
g3
NtRp570
(dp571
g18
g19
sg20
g487
sg21
I00
sg22
Nsg23
F65.05399438141626
sg24
g157
sg25
F1
sg26
g19
sg27
Nsbsg166
g1
(g15
g3
NtRp572
(dp573
g18
g19
sg20
g487
sg21
I00
sg22
Nsg23
F-156.07864657751128
sg24
g166
sg25
F1
sg26
g19
sg27
Nsbsg172
g1
(g15
g3
NtRp574
(dp575
g18
g19
sg20
g487
sg21
I00
sg22
Nsg23
F64.944068581008111
sg24
g172
sg25
F1
sg26
g19
sg27
Nsbsg175
g1
(g15
g3
NtRp576
(dp577
g18
g19
sg20
g487
sg21
I00
sg22
Nsg23
F-76.936841550392572
sg24
g175
sg25
F1
sg26
g19
sg27
Nsbsg178
g1
(g15
g3
NtRp578
(dp579
g18
g19
sg20
g487
sg21
I00
sg22
Nsg23
F124.96361286787291
sg24
g178
sg25
F1
sg26
g19
sg27
Nsbsg181
g1
(g15
g3
NtRp580
(dp581
g18
g19
sg20
g487
sg21
I00
sg22
Nsg23
F208.77691347997091
sg24
g181
sg25
F1
sg26
g19
sg27
Nsbsg184
g1
(g15
g3
NtRp582
(dp583
g18
g19
sg20
g487
sg21
I00
sg22
Nsg23
F788.57418421442321
sg24
g184
sg25
F1
sg26
g19
sg27
Nsbsg187
g1
(g15
g3
NtRp584
(dp585
g18
g19
sg20
g487
sg21
I00
sg22
Nsg23
F-49.924724216552292
sg24
g187
sg25
F1
sg26
g19
sg27
Nsbssg8
(dp586
sg20
g4
sg24
g486
sbsS'am1'
p587
g1
(g2
g3
NtRp588
(dp589
g6
(dp590
g14
g1
(g15
g3
NtRp591
(dp592
g18
g19
sg20
g588
sg21
I00
sg22
Nsg23
F95.816733219217312
sg24
g14
sg25
F1
sg26
g19
sg27
Nsbsg28
g1
(g15
g3
NtRp593
(dp594
g18
g19
sg20
g588
sg21
I00
sg22
Nsg23
F-3.0698791053017249
sg24
g28
sg25
F1
sg26
g19
sg27
Nsbsg31
g1
(g15
g3
NtRp595
(dp596
g18
g19
sg20
g588
sg21
I00
sg22
Nsg23
F244.67890240030292
sg24
g31
sg25
F1
sg26
g19
sg27
Nsbsg34
g1
(g15
g3
NtRp597
(dp598
g18
g19
sg20
g588
sg21
I00
sg22
Nsg23
F-415.32125315529709
sg24
g34
sg25
F1
sg26
g19
sg27
Nsbsg37
g1
(g15
g3
NtRp599
(dp600
g18
g19
sg20
g588
sg21
I00
sg22
Nsg23
F-454.07073943902128
sg24
g37
sg25
F1
sg26
g19
sg27
Nsbsg40
g1
(g15
g3
NtRp601
(dp602
g18
g19
sg20
g588
sg21
I00
sg22
Nsg23
F-494.53773834339313
sg24
g40
sg25
F1
sg26
g19
sg27
Nsbsg43
g1
(g15
g3
NtRp603
(dp604
g18
g19
sg20
g588
sg21
I00
sg22
Nsg23
F64.997947917320687
sg24
g43
sg25
F1
sg26
g19
sg27
Nsbsg49
g1
(g15
g3
NtRp605
(dp606
g18
g19
sg20
g588
sg21
I00
sg22
Nsg23
F-15.302249499446786
sg24
g49
sg25
F1
sg26
g19
sg27
Nsbsg55
g1
(g15
g3
NtRp607
(dp608
g18
g19
sg20
g588
sg21
I00
sg22
Nsg23
F-29.407186390968509
sg24
g55
sg25
F1
sg26
g19
sg27
Nsbsg58
g1
(g15
g3
NtRp609
(dp610
g18
g19
sg20
g588
sg21
I00
sg22
Nsg23
F-18.480399621557574
sg24
g58
sg25
F1
sg26
g19
sg27
Nsbsg61
g1
(g15
g3
NtRp611
(dp612
g18
g19
sg20
g588
sg21
I00
sg22
Nsg23
F-272.23272098334979
sg24
g61
sg25
F1
sg26
g19
sg27
Nsbsg64
g1
(g15
g3
NtRp613
(dp614
g18
g19
sg20
g588
sg21
I00
sg22
Nsg23
F827.15445088639808
sg24
g64
sg25
F1
sg26
g19
sg27
Nsbsg67
g1
(g15
g3
NtRp615
(dp616
g18
g19
sg20
g588
sg21
I00
sg22
Nsg23
F186.54594694487025
sg24
g67
sg25
F1
sg26
g19
sg27
Nsbsg70
g1
(g15
g3
NtRp617
(dp618
g18
g19
sg20
g588
sg21
I00
sg22
Nsg23
F-21.662229378978545
sg24
g70
sg25
F1
sg26
g19
sg27
Nsbsg73
g1
(g15
g3
NtRp619
(dp620
g18
g19
sg20
g588
sg21
I00
sg22
Nsg23
F-114.87075344993634
sg24
g73
sg25
F1
sg26
g19
sg27
Nsbsg76
g1
(g15
g3
NtRp621
(dp622
g18
g19
sg20
g588
sg21
I00
sg22
Nsg23
F-385.14415780259264
sg24
g76
sg25
F1
sg26
g19
sg27
Nsbsg79
g1
(g15
g3
NtRp623
(dp624
g18
g19
sg20
g588
sg21
I00
sg22
Nsg23
F162.6784745908293
sg24
g79
sg25
F1
sg26
g19
sg27
Nsbsg85
g1
(g15
g3
NtRp625
(dp626
g18
g19
sg20
g588
sg21
I00
sg22
Nsg23
F-103.92743602459636
sg24
g85
sg25
F1
sg26
g19
sg27
Nsbsg88
g1
(g15
g3
NtRp627
(dp628
g18
g19
sg20
g588
sg21
I00
sg22
Nsg23
F-26.974346919618032
sg24
g88
sg25
F1
sg26
g19
sg27
Nsbsg91
g1
(g15
g3
NtRp629
(dp630
g18
g19
sg20
g588
sg21
I00
sg22
Nsg23
F-122.61863974123712
sg24
g91
sg25
F1
sg26
g19
sg27
Nsbsg94
g1
(g15
g3
NtRp631
(dp632
g18
g19
sg20
g588
sg21
I00
sg22
Nsg23
F200.25353874636889
sg24
g94
sg25
F1
sg26
g19
sg27
Nsbsg97
g1
(g15
g3
NtRp633
(dp634
g18
g19
sg20
g588
sg21
I00
sg22
Nsg23
F-288.16167148019224
sg24
g97
sg25
F1
sg26
g19
sg27
Nsbsg100
g1
(g15
g3
NtRp635
(dp636
g18
g19
sg20
g588
sg21
I00
sg22
Nsg23
F-272.91901956366513
sg24
g100
sg25
F1
sg26
g19
sg27
Nsbsg103
g1
(g15
g3
NtRp637
(dp638
g18
g19
sg20
g588
sg21
I00
sg22
Nsg23
F271.14496926720011
sg24
g103
sg25
F1
sg26
g19
sg27
Nsbsg106
g1
(g15
g3
NtRp639
(dp640
g18
g19
sg20
g588
sg21
I00
sg22
Nsg23
F455.83238503323406
sg24
g106
sg25
F1
sg26
g19
sg27
Nsbsg109
g1
(g15
g3
NtRp641
(dp642
g18
g19
sg20
g588
sg21
I00
sg22
Nsg23
F-20.571092052939019
sg24
g109
sg25
F1
sg26
g19
sg27
Nsbsg112
g1
(g15
g3
NtRp643
(dp644
g18
g19
sg20
g588
sg21
I00
sg22
Nsg23
F48.825066989683584
sg24
g112
sg25
F1
sg26
g19
sg27
Nsbsg115
g1
(g15
g3
NtRp645
(dp646
g18
g19
sg20
g588
sg21
I00
sg22
Nsg23
F-171.93714837239824
sg24
g115
sg25
F1
sg26
g19
sg27
Nsbsg118
g1
(g15
g3
NtRp647
(dp648
g18
g19
sg20
g588
sg21
I00
sg22
Nsg23
F-181.99978027583998
sg24
g118
sg25
F1
sg26
g19
sg27
Nsbsg124
g1
(g15
g3
NtRp649
(dp650
g18
g19
sg20
g588
sg21
I00
sg22
Nsg23
F-54.397459266425919
sg24
g124
sg25
F1
sg26
g19
sg27
Nsbsg127
g1
(g15
g3
NtRp651
(dp652
g18
g19
sg20
g588
sg21
I00
sg22
Nsg23
F-261.47247933388411
sg24
g127
sg25
F1
sg26
g19
sg27
Nsbsg130
g1
(g15
g3
NtRp653
(dp654
g18
g19
sg20
g588
sg21
I00
sg22
Nsg23
F-129.18245024098314
sg24
g130
sg25
F1
sg26
g19
sg27
Nsbsg133
g1
(g15
g3
NtRp655
(dp656
g18
g19
sg20
g588
sg21
I00
sg22
Nsg23
F-252.79379119920171
sg24
g133
sg25
F1
sg26
g19
sg27
Nsbsg136
g1
(g15
g3
NtRp657
(dp658
g18
g19
sg20
g588
sg21
I00
sg22
Nsg23
F35.590899193904576
sg24
g136
sg25
F1
sg26
g19
sg27
Nsbsg139
g1
(g15
g3
NtRp659
(dp660
g18
g19
sg20
g588
sg21
I00
sg22
Nsg23
F-155.64349018750232
sg24
g139
sg25
F1
sg26
g19
sg27
Nsbsg142
g1
(g15
g3
NtRp661
(dp662
g18
g19
sg20
g588
sg21
I00
sg22
Nsg23
F-195.95586703592525
sg24
g142
sg25
F1
sg26
g19
sg27
Nsbsg145
g1
(g15
g3
NtRp663
(dp664
g18
g19
sg20
g588
sg21
I00
sg22
Nsg23
F340.73327302999309
sg24
g145
sg25
F1
sg26
g19
sg27
Nsbsg148
g1
(g15
g3
NtRp665
(dp666
g18
g19
sg20
g588
sg21
I00
sg22
Nsg23
F-244.87665680770428
sg24
g148
sg25
F1
sg26
g19
sg27
Nsbsg151
g1
(g15
g3
NtRp667
(dp668
g18
g19
sg20
g588
sg21
I00
sg22
Nsg23
F-121.63160180250031
sg24
g151
sg25
F1
sg26
g19
sg27
Nsbsg154
g1
(g15
g3
NtRp669
(dp670
g18
g19
sg20
g588
sg21
I00
sg22
Nsg23
F-124.14077893182184
sg24
g154
sg25
F1
sg26
g19
sg27
Nsbsg157
g1
(g15
g3
NtRp671
(dp672
g18
g19
sg20
g588
sg21
I00
sg22
Nsg23
F96.7331818273978
sg24
g157
sg25
F1
sg26
g19
sg27
Nsbsg166
g1
(g15
g3
NtRp673
(dp674
g18
g19
sg20
g588
sg21
I00
sg22
Nsg23
F-145.16048954916855
sg24
g166
sg25
F1
sg26
g19
sg27
Nsbsg169
g1
(g15
g3
NtRp675
(dp676
g18
g19
sg20
g588
sg21
I00
sg22
Nsg23
F1212.1110401567016
sg24
g169
sg25
F1
sg26
g19
sg27
Nsbsg172
g1
(g15
g3
NtRp677
(dp678
g18
g19
sg20
g588
sg21
I00
sg22
Nsg23
F69.64260873027186
sg24
g172
sg25
F1
sg26
g19
sg27
Nsbsg175
g1
(g15
g3
NtRp679
(dp680
g18
g19
sg20
g588
sg21
I00
sg22
Nsg23
F-63.69725221769589
sg24
g175
sg25
F1
sg26
g19
sg27
Nsbsg178
g1
(g15
g3
NtRp681
(dp682
g18
g19
sg20
g588
sg21
I00
sg22
Nsg23
F137.8243551067647
sg24
g178
sg25
F1
sg26
g19
sg27
Nsbsg181
g1
(g15
g3
NtRp683
(dp684
g18
g19
sg20
g588
sg21
I00
sg22
Nsg23
F406.26338690524415
sg24
g181
sg25
F1
sg26
g19
sg27
Nsbsg184
g1
(g15
g3
NtRp685
(dp686
g18
g19
sg20
g588
sg21
I00
sg22
Nsg23
F796.83200374776663
sg24
g184
sg25
F1
sg26
g19
sg27
Nsbsg187
g1
(g15
g3
NtRp687
(dp688
g18
g19
sg20
g588
sg21
I00
sg22
Nsg23
F-35.80597497838454
sg24
g187
sg25
F1
sg26
g19
sg27
Nsbssg8
(dp689
sg20
g4
sg24
g587
sbsS'pddgpm3'
p690
g1
(g2
g3
NtRp691
(dp692
g6
(dp693
g14
g1
(g15
g3
NtRp694
(dp695
g18
g19
sg20
g691
sg21
I00
sg22
Nsg23
F100.38621676202553
sg24
g14
sg25
F1
sg26
g19
sg27
Nsbsg28
g1
(g15
g3
NtRp696
(dp697
g18
g19
sg20
g691
sg21
I00
sg22
Nsg23
F11.562782564284701
sg24
g28
sg25
F1
sg26
g19
sg27
Nsbsg31
g1
(g15
g3
NtRp698
(dp699
g18
g19
sg20
g691
sg21
I00
sg22
Nsg23
F217.1838090156227
sg24
g31
sg25
F1
sg26
g19
sg27
Nsbsg34
g1
(g15
g3
NtRp700
(dp701
g18
g19
sg20
g691
sg21
I00
sg22
Nsg23
F-407.32415601896116
sg24
g34
sg25
F1
sg26
g19
sg27
Nsbsg37
g1
(g15
g3
NtRp702
(dp703
g18
g19
sg20
g691
sg21
I00
sg22
Nsg23
F-420.87292271529492
sg24
g37
sg25
F1
sg26
g19
sg27
Nsbsg40
g1
(g15
g3
NtRp704
(dp705
g18
g19
sg20
g691
sg21
I00
sg22
Nsg23
F-452.86989877163552
sg24
g40
sg25
F1
sg26
g19
sg27
Nsbsg43
g1
(g15
g3
NtRp706
(dp707
g18
g19
sg20
g691
sg21
I00
sg22
Nsg23
F76.070514911102336
sg24
g43
sg25
F1
sg26
g19
sg27
Nsbsg49
g1
(g15
g3
NtRp708
(dp709
g18
g19
sg20
g691
sg21
I00
sg22
Nsg23
F-111.68211644339712
sg24
g49
sg25
F1
sg26
g19
sg27
Nsbsg55
g1
(g15
g3
NtRp710
(dp711
g18
g19
sg20
g691
sg21
I00
sg22
Nsg23
F-42.991070920640247
sg24
g55
sg25
F1
sg26
g19
sg27
Nsbsg58
g1
(g15
g3
NtRp712
(dp713
g18
g19
sg20
g691
sg21
I00
sg22
Nsg23
F-52.172754900618521
sg24
g58
sg25
F1
sg26
g19
sg27
Nsbsg61
g1
(g15
g3
NtRp714
(dp715
g18
g19
sg20
g691
sg21
I00
sg22
Nsg23
F-280.70147167043774
sg24
g61
sg25
F1
sg26
g19
sg27
Nsbsg64
g1
(g15
g3
NtRp716
(dp717
g18
g19
sg20
g691
sg21
I00
sg22
Nsg23
F884.03951544326958
sg24
g64
sg25
F1
sg26
g19
sg27
Nsbsg67
g1
(g15
g3
NtRp718
(dp719
g18
g19
sg20
g691
sg21
I00
sg22
Nsg23
F187.20941091334277
sg24
g67
sg25
F1
sg26
g19
sg27
Nsbsg70
g1
(g15
g3
NtRp720
(dp721
g18
g19
sg20
g691
sg21
I00
sg22
Nsg23
F-92.968486589289427
sg24
g70
sg25
F1
sg26
g19
sg27
Nsbsg73
g1
(g15
g3
NtRp722
(dp723
g18
g19
sg20
g691
sg21
I00
sg22
Nsg23
F-171.2744494181355
sg24
g73
sg25
F1
sg26
g19
sg27
Nsbsg76
g1
(g15
g3
NtRp724
(dp725
g18
g19
sg20
g691
sg21
I00
sg22
Nsg23
F-392.30973921100059
sg24
g76
sg25
F1
sg26
g19
sg27
Nsbsg79
g1
(g15
g3
NtRp726
(dp727
g18
g19
sg20
g691
sg21
I00
sg22
Nsg23
F-76.073151695299288
sg24
g79
sg25
F1
sg26
g19
sg27
Nsbsg85
g1
(g15
g3
NtRp728
(dp729
g18
g19
sg20
g691
sg21
I00
sg22
Nsg23
F-112.73412963837175
sg24
g85
sg25
F1
sg26
g19
sg27
Nsbsg88
g1
(g15
g3
NtRp730
(dp731
g18
g19
sg20
g691
sg21
I00
sg22
Nsg23
F-78.949511873548516
sg24
g88
sg25
F1
sg26
g19
sg27
Nsbsg91
g1
(g15
g3
NtRp732
(dp733
g18
g19
sg20
g691
sg21
I00
sg22
Nsg23
F-187.38749830500268
sg24
g91
sg25
F1
sg26
g19
sg27
Nsbsg94
g1
(g15
g3
NtRp734
(dp735
g18
g19
sg20
g691
sg21
I00
sg22
Nsg23
F201.66659598445989
sg24
g94
sg25
F1
sg26
g19
sg27
Nsbsg97
g1
(g15
g3
NtRp736
(dp737
g18
g19
sg20
g691
sg21
I00
sg22
Nsg23
F-220.61953731381851
sg24
g97
sg25
F1
sg26
g19
sg27
Nsbsg100
g1
(g15
g3
NtRp738
(dp739
g18
g19
sg20
g691
sg21
I00
sg22
Nsg23
F-249.87264211251417
sg24
g100
sg25
F1
sg26
g19
sg27
Nsbsg103
g1
(g15
g3
NtRp740
(dp741
g18
g19
sg20
g691
sg21
I00
sg22
Nsg23
F267.6680430413345
sg24
g103
sg25
F1
sg26
g19
sg27
Nsbsg106
g1
(g15
g3
NtRp742
(dp743
g18
g19
sg20
g691
sg21
I00
sg22
Nsg23
F440.79633557520009
sg24
g106
sg25
F1
sg26
g19
sg27
Nsbsg109
g1
(g15
g3
NtRp744
(dp745
g18
g19
sg20
g691
sg21
I00
sg22
Nsg23
F-25.162444511364839
sg24
g109
sg25
F1
sg26
g19
sg27
Nsbsg112
g1
(g15
g3
NtRp746
(dp747
g18
g19
sg20
g691
sg21
I00
sg22
Nsg23
F39.766228491701568
sg24
g112
sg25
F1
sg26
g19
sg27
Nsbsg115
g1
(g15
g3
NtRp748
(dp749
g18
g19
sg20
g691
sg21
I00
sg22
Nsg23
F0.67840319566877483
sg24
g115
sg25
F1
sg26
g19
sg27
Nsbsg118
g1
(g15
g3
NtRp750
(dp751
g18
g19
sg20
g691
sg21
I00
sg22
Nsg23
F-173.45970804267955
sg24
g118
sg25
F1
sg26
g19
sg27
Nsbsg124
g1
(g15
g3
NtRp752
(dp753
g18
g19
sg20
g691
sg21
I00
sg22
Nsg23
F-196.79039451058361
sg24
g124
sg25
F1
sg26
g19
sg27
Nsbsg127
g1
(g15
g3
NtRp754
(dp755
g18
g19
sg20
g691
sg21
I00
sg22
Nsg23
F-262.06661174270778
sg24
g127
sg25
F1
sg26
g19
sg27
Nsbsg130
g1
(g15
g3
NtRp756
(dp757
g18
g19
sg20
g691
sg21
I00
sg22
Nsg23
F-126.41806345315707
sg24
g130
sg25
F1
sg26
g19
sg27
Nsbsg133
g1
(g15
g3
NtRp758
(dp759
g18
g19
sg20
g691
sg21
I00
sg22
Nsg23
F-220.47396770053189
sg24
g133
sg25
F1
sg26
g19
sg27
Nsbsg136
g1
(g15
g3
NtRp760
(dp761
g18
g19
sg20
g691
sg21
I00
sg22
Nsg23
F-36.792187973291199
sg24
g136
sg25
F1
sg26
g19
sg27
Nsbsg139
g1
(g15
g3
NtRp762
(dp763
g18
g19
sg20
g691
sg21
I00
sg22
Nsg23
F-177.41390671654693
sg24
g139
sg25
F1
sg26
g19
sg27
Nsbsg142
g1
(g15
g3
NtRp764
(dp765
g18
g19
sg20
g691
sg21
I00
sg22
Nsg23
F-224.6202481044331
sg24
g142
sg25
F1
sg26
g19
sg27
Nsbsg145
g1
(g15
g3
NtRp766
(dp767
g18
g19
sg20
g691
sg21
I00
sg22
Nsg23
F163.40891494244642
sg24
g145
sg25
F1
sg26
g19
sg27
Nsbsg148
g1
(g15
g3
NtRp768
(dp769
g18
g19
sg20
g691
sg21
I00
sg22
Nsg23
F-219.37631935380341
sg24
g148
sg25
F1
sg26
g19
sg27
Nsbsg151
g1
(g15
g3
NtRp770
(dp771
g18
g19
sg20
g691
sg21
I00
sg22
Nsg23
F-167.0323063575899
sg24
g151
sg25
F1
sg26
g19
sg27
Nsbsg154
g1
(g15
g3
NtRp772
(dp773
g18
g19
sg20
g691
sg21
I00
sg22
Nsg23
F-329.0942313921559
sg24
g154
sg25
F1
sg26
g19
sg27
Nsbsg157
g1
(g15
g3
NtRp774
(dp775
g18
g19
sg20
g691
sg21
I00
sg22
Nsg23
F69.416938851747304
sg24
g157
sg25
F1
sg26
g19
sg27
Nsbsg166
g1
(g15
g3
NtRp776
(dp777
g18
g19
sg20
g691
sg21
I00
sg22
Nsg23
F-181.35326800415848
sg24
g166
sg25
F1
sg26
g19
sg27
Nsbsg169
g1
(g15
g3
NtRp778
(dp779
g18
g19
sg20
g691
sg21
I00
sg22
Nsg23
F1272.2838150081436
sg24
g169
sg25
F1
sg26
g19
sg27
Nsbsg172
g1
(g15
g3
NtRp780
(dp781
g18
g19
sg20
g691
sg21
I00
sg22
Nsg23
F60.856642886448597
sg24
g172
sg25
F1
sg26
g19
sg27
Nsbsg175
g1
(g15
g3
NtRp782
(dp783
g18
g19
sg20
g691
sg21
I00
sg22
Nsg23
F-75.545717271226664
sg24
g175
sg25
F1
sg26
g19
sg27
Nsbsg178
g1
(g15
g3
NtRp784
(dp785
g18
g19
sg20
g691
sg21
I00
sg22
Nsg23
F120.80686726166047
sg24
g178
sg25
F1
sg26
g19
sg27
Nsbsg181
g1
(g15
g3
NtRp786
(dp787
g18
g19
sg20
g691
sg21
I00
sg22
Nsg23
F176.09111175881327
sg24
g181
sg25
F1
sg26
g19
sg27
Nsbsg184
g1
(g15
g3
NtRp788
(dp789
g18
g19
sg20
g691
sg21
I00
sg22
Nsg23
F742.45309218829357
sg24
g184
sg25
F1
sg26
g19
sg27
Nsbsg187
g1
(g15
g3
NtRp790
(dp791
g18
g19
sg20
g691
sg21
I00
sg22
Nsg23
F-65.86418396024321
sg24
g187
sg25
F1
sg26
g19
sg27
Nsbssg8
(dp792
sg20
g4
sg24
g690
sbssg20
Nsg24
S'MNDO RHF Energies'
p793
sb.
