ccopy_reg
_reconstructor
p1
(cpCore.Testing
TestDataSet
p2
c__builtin__
object
p3
NtRp4
(dp5
S'data'
p6
(dp7
sS'children'
p8
(dp9
S'dna'
p10
g1
(g2
g3
NtRp11
(dp12
g6
(dp13
S'Fourier Dihedral'
p14
g1
(cpCore.Testing
TestReal
p15
g3
NtRp16
(dp17
S'valueFormat'
p18
S'{:.3f}'
p19
sS'parent'
p20
g11
sS'usePercentError'
p21
I00
sS'percentErrorTolerance'
p22
NsS'value'
p23
F15756.526419904683
sS'label'
p24
g14
sS'absoluteErrorTolerance'
p25
F0.5
sS'toleranceFormat'
p26
g19
sS'units'
p27
NsbsS'Potential Energy'
p28
g1
(g15
g3
NtRp29
(dp30
g18
g19
sg20
g11
sg21
I00
sg22
Nsg23
F543004.13072036451
sg24
g28
sg25
F0.5
sg26
g19
sg27
NsbsS'MM/MM LJ'
p31
g1
(g15
g3
NtRp32
(dp33
g18
g19
sg20
g11
sg21
I00
sg22
Nsg23
F-6646.5642516404514
sg24
g31
sg25
F0.5
sg26
g19
sg27
NsbsS'MM/MM Elect.'
p34
g1
(g15
g3
NtRp35
(dp36
g18
g19
sg20
g11
sg21
I00
sg22
Nsg23
F546979.0897631027
sg24
g34
sg25
F0.5
sg26
g19
sg27
NsbsS'Harmonic Bond'
p37
g1
(g15
g3
NtRp38
(dp39
g18
g19
sg20
g11
sg21
I00
sg22
Nsg23
F49910.063334505379
sg24
g37
sg25
F0.5
sg26
g19
sg27
NsbsS'Fourier Improper'
p40
g1
(g15
g3
NtRp41
(dp42
g18
g19
sg20
g11
sg21
I00
sg22
Nsg23
F1.7930430256234291
sg24
g40
sg25
F0.5
sg26
g19
sg27
NsbsS'MM/MM 1-4 Elect.'
p43
g1
(g15
g3
NtRp44
(dp45
g18
g19
sg20
g11
sg21
I00
sg22
Nsg23
F-102141.97044163219
sg24
g43
sg25
F0.5
sg26
g19
sg27
NsbsS'MM/MM 1-4 LJ'
p46
g1
(g15
g3
NtRp47
(dp48
g18
g19
sg20
g11
sg21
I00
sg22
Nsg23
F8247.0816752299343
sg24
g46
sg25
F0.5
sg26
g19
sg27
NsbsS'Harmonic Angle'
p49
g1
(g15
g3
NtRp50
(dp51
g18
g19
sg20
g11
sg21
I00
sg22
Nsg23
F30898.111177868861
sg24
g49
sg25
F0.5
sg26
g19
sg27
Nsbssg8
(dp52
sg20
g4
sg24
g10
sbsS'glucose'
p53
g1
(g2
g3
NtRp54
(dp55
g6
(dp56
g14
g1
(g15
g3
NtRp57
(dp58
g18
g19
sg20
g54
sg21
I00
sg22
Nsg23
F9.6271250060636596e-06
sg24
g14
sg25
F0.5
sg26
g19
sg27
Nsbsg28
g1
(g15
g3
NtRp59
(dp60
g18
g19
sg20
g54
sg21
I00
sg22
Nsg23
F368.51911873001745
sg24
g28
sg25
F0.5
sg26
g19
sg27
Nsbsg31
g1
(g15
g3
NtRp61
(dp62
g18
g19
sg20
g54
sg21
I00
sg22
Nsg23
F30.379471070666987
sg24
g31
sg25
F0.5
sg26
g19
sg27
Nsbsg34
g1
(g15
g3
NtRp63
(dp64
g18
g19
sg20
g54
sg21
I00
sg22
Nsg23
F-361.09756616820886
sg24
g34
sg25
F0.5
sg26
g19
sg27
Nsbsg37
g1
(g15
g3
NtRp65
(dp66
g18
g19
sg20
g54
sg21
I00
sg22
Nsg23
F10.701791863102454
sg24
g37
sg25
F0.5
sg26
g19
sg27
Nsbsg40
g1
(g15
g3
NtRp67
(dp68
g18
g19
sg20
g54
sg21
I00
sg22
Nsg23
F5.4337640320822086e-05
sg24
g40
sg25
F0.5
sg26
g19
sg27
Nsbsg43
g1
(g15
g3
NtRp69
(dp70
g18
g19
sg20
g54
sg21
I00
sg22
Nsg23
F657.05798765675786
sg24
g43
sg25
F0.5
sg26
g19
sg27
Nsbsg46
g1
(g15
g3
NtRp71
(dp72
g18
g19
sg20
g54
sg21
I00
sg22
Nsg23
F27.366586586642622
sg24
g46
sg25
F0.5
sg26
g19
sg27
NsbsS'Gradient Error'
p73
g1
(g15
g3
NtRp74
(dp75
g18
S'{:.4e}'
p76
sg20
g54
sg21
I00
sg22
Nsg23
F1.755666150415891e-05
sg24
g73
sg25
F0.001
sg26
g76
sg27
Nsbsg49
g1
(g15
g3
NtRp77
(dp78
g18
g19
sg20
g54
sg21
I00
sg22
Nsg23
F4.1107837562911254
sg24
g49
sg25
F0.5
sg26
g19
sg27
Nsbssg8
(dp79
sg20
g4
sg24
g53
sbssg20
Nsg24
S'AMBER Test'
p80
sb.
