ccopy_reg
_reconstructor
p1
(cpCore.Testing
TestDataSet
p2
c__builtin__
object
p3
NtRp4
(dp5
S'data'
p6
(dp7
sS'children'
p8
(dp9
S'citrate_synthase'
p10
g1
(g2
g3
NtRp11
(dp12
g6
(dp13
S'Fourier Dihedral'
p14
g1
(cpCore.Testing
TestReal
p15
g3
NtRp16
(dp17
S'valueFormat'
p18
S'{:.3f}'
p19
sS'parent'
p20
g11
sS'usePercentError'
p21
I00
sS'percentErrorTolerance'
p22
NsS'value'
p23
F7357.3726555978719
sS'label'
p24
g14
sS'absoluteErrorTolerance'
p25
F0.5
sS'toleranceFormat'
p26
g19
sS'units'
p27
NsbsS'Harmonic Improper'
p28
g1
(g15
g3
NtRp29
(dp30
g18
g19
sg20
g11
sg21
I00
sg22
Nsg23
F577.26759281361058
sg24
g28
sg25
F0.5
sg26
g19
sg27
NsbsS'Urey-Bradley'
p31
g1
(g15
g3
NtRp32
(dp33
g18
g19
sg20
g11
sg21
I00
sg22
Nsg23
F571.52705466733562
sg24
g31
sg25
F0.5
sg26
g19
sg27
NsbsS'Potential Energy'
p34
g1
(g15
g3
NtRp35
(dp36
g18
g19
sg20
g11
sg21
I00
sg22
Nsg23
F-12177.045267987925
sg24
g34
sg25
F0.5
sg26
g19
sg27
NsbsS'MM/MM LJ'
p37
g1
(g15
g3
NtRp38
(dp39
g18
g19
sg20
g11
sg21
I00
sg22
Nsg23
F-4871.6045048934948
sg24
g37
sg25
F0.5
sg26
g19
sg27
NsbsS'MM/MM Elect.'
p40
g1
(g15
g3
NtRp41
(dp42
g18
g19
sg20
g11
sg21
I00
sg22
Nsg23
F-101430.26975064808
sg24
g40
sg25
F0.5
sg26
g19
sg27
NsbsS'Harmonic Bond'
p43
g1
(g15
g3
NtRp44
(dp45
g18
g19
sg20
g11
sg21
I00
sg22
Nsg23
F2978.6501618185366
sg24
g43
sg25
F0.5
sg26
g19
sg27
NsbsS'MM/MM 1-4 Elect.'
p46
g1
(g15
g3
NtRp47
(dp48
g18
g19
sg20
g11
sg21
I00
sg22
Nsg23
F72482.560522966247
sg24
g46
sg25
F0.5
sg26
g19
sg27
NsbsS'CMAP Dihedral'
p49
g1
(g15
g3
NtRp50
(dp51
g18
g19
sg20
g11
sg21
I00
sg22
Nsg23
F-1649.793451829712
sg24
g49
sg25
F0.5
sg26
g19
sg27
NsbsS'MM/MM 1-4 LJ'
p52
g1
(g15
g3
NtRp53
(dp54
g18
g19
sg20
g11
sg21
I00
sg22
Nsg23
F6094.4839821858641
sg24
g52
sg25
F0.5
sg26
g19
sg27
NsbsS'Harmonic Angle'
p55
g1
(g15
g3
NtRp56
(dp57
g18
g19
sg20
g11
sg21
I00
sg22
Nsg23
F5712.7604693338826
sg24
g55
sg25
F0.5
sg26
g19
sg27
Nsbssg8
(dp58
sg20
g4
sg24
g10
sbsS'ava'
p59
g1
(g2
g3
NtRp60
(dp61
g6
(dp62
g14
g1
(g15
g3
NtRp63
(dp64
g18
g19
sg20
g60
sg21
I00
sg22
Nsg23
F13.604010032045927
sg24
g14
sg25
F0.5
sg26
g19
sg27
Nsbsg28
g1
(g15
g3
NtRp65
(dp66
g18
g19
sg20
g60
sg21
I00
sg22
Nsg23
F0.064019794259853116
sg24
g28
sg25
F0.5
sg26
g19
sg27
Nsbsg31
g1
(g15
g3
NtRp67
(dp68
g18
g19
sg20
g60
sg21
I00
sg22
Nsg23
F0.85822131535938395
sg24
g31
sg25
F0.5
sg26
g19
sg27
Nsbsg34
g1
(g15
g3
NtRp69
(dp70
g18
g19
sg20
g60
sg21
I00
sg22
Nsg23
F106.07205765877292
sg24
g34
sg25
F0.5
sg26
g19
sg27
Nsbsg37
g1
(g15
g3
NtRp71
(dp72
g18
g19
sg20
g60
sg21
I00
sg22
Nsg23
F-12.355334683520091
sg24
g37
sg25
F0.5
sg26
g19
sg27
Nsbsg40
g1
(g15
g3
NtRp73
(dp74
g18
g19
sg20
g60
sg21
I00
sg22
Nsg23
F-1016.4391896674888
sg24
g40
sg25
F0.5
sg26
g19
sg27
Nsbsg43
g1
(g15
g3
NtRp75
(dp76
g18
g19
sg20
g60
sg21
I00
sg22
Nsg23
F2.8857947786912135
sg24
g43
sg25
F0.5
sg26
g19
sg27
Nsbsg46
g1
(g15
g3
NtRp77
(dp78
g18
g19
sg20
g60
sg21
I00
sg22
Nsg23
F1112.7746852498622
sg24
g46
sg25
F0.5
sg26
g19
sg27
Nsbsg49
g1
(g15
g3
NtRp79
(dp80
g18
g19
sg20
g60
sg21
I00
sg22
Nsg23
F-16.463671248718942
sg24
g49
sg25
F0.5
sg26
g19
sg27
Nsbsg52
g1
(g15
g3
NtRp81
(dp82
g18
g19
sg20
g60
sg21
I00
sg22
Nsg23
F11.499818676924482
sg24
g52
sg25
F0.5
sg26
g19
sg27
NsbsS'Gradient Error'
p83
g1
(g15
g3
NtRp84
(dp85
g18
S'{:.4e}'
p86
sg20
g60
sg21
I00
sg22
Nsg23
F1.4033384836409368e-05
sg24
g83
sg25
F0.001
sg26
g86
sg27
Nsbsg55
g1
(g15
g3
NtRp87
(dp88
g18
g19
sg20
g60
sg21
I00
sg22
Nsg23
F9.6437034113577216
sg24
g55
sg25
F0.5
sg26
g19
sg27
Nsbssg8
(dp89
sg20
g4
sg24
g59
sbssg20
Nsg24
S'Charmm Test'
p90
sb.
