ccopy_reg
_reconstructor
p1
(cpCore.Testing
TestDataSet
p2
c__builtin__
object
p3
NtRp4
(dp5
S'data'
p6
(dp7
sS'children'
p8
(dp9
S'ava-AMBER'
p10
g1
(g2
g3
NtRp11
(dp12
g6
(dp13
S'Fourier Dihedral'
p14
g1
(cpCore.Testing
TestReal
p15
g3
NtRp16
(dp17
S'valueFormat'
p18
S'{:.3f}'
p19
sS'parent'
p20
g11
sS'usePercentError'
p21
I00
sS'percentErrorTolerance'
p22
NsS'value'
p23
F44.670834719049054
sS'label'
p24
g14
sS'absoluteErrorTolerance'
p25
F0.5
sS'toleranceFormat'
p26
g19
sS'units'
p27
NsbsS'Potential Energy'
p28
g1
(g15
g3
NtRp29
(dp30
g18
g19
sg20
g11
sg21
I00
sg22
Nsg23
F-101.28190740795
sg24
g28
sg25
F0.5
sg26
g19
sg27
NsbsS'MM/MM LJ'
p31
g1
(g15
g3
NtRp32
(dp33
g18
g19
sg20
g11
sg21
I00
sg22
Nsg23
F-14.064513428536756
sg24
g31
sg25
F0.5
sg26
g19
sg27
NsbsS'MM/MM Elect.'
p34
g1
(g15
g3
NtRp35
(dp36
g18
g19
sg20
g11
sg21
I00
sg22
Nsg23
F-1050.0422912611261
sg24
g34
sg25
F0.5
sg26
g19
sg27
NsbsS'Harmonic Bond'
p37
g1
(g15
g3
NtRp38
(dp39
g18
g19
sg20
g11
sg21
I00
sg22
Nsg23
F20.775629951402532
sg24
g37
sg25
F0.5
sg26
g19
sg27
NsbsS'Fourier Improper'
p40
g1
(g15
g3
NtRp41
(dp42
g18
g19
sg20
g11
sg21
I00
sg22
Nsg23
F0.019987121794708691
sg24
g40
sg25
F0.5
sg26
g19
sg27
NsbsS'MM/MM 1-4 Elect.'
p43
g1
(g15
g3
NtRp44
(dp45
g18
g19
sg20
g11
sg21
I00
sg22
Nsg23
F840.04593339686073
sg24
g43
sg25
F0.5
sg26
g19
sg27
NsbsS'MM/MM 1-4 LJ'
p46
g1
(g15
g3
NtRp47
(dp48
g18
g19
sg20
g11
sg21
I00
sg22
Nsg23
F43.894106585814619
sg24
g46
sg25
F0.5
sg26
g19
sg27
NsbsS'Gradient Error'
p49
g1
(g15
g3
NtRp50
(dp51
g18
S'{:.4e}'
p52
sg20
g11
sg21
I00
sg22
Nsg23
F1.2700677785915104e-05
sg24
g49
sg25
F0.001
sg26
g52
sg27
NsbsS'Harmonic Angle'
p53
g1
(g15
g3
NtRp54
(dp55
g18
g19
sg20
g11
sg21
I00
sg22
Nsg23
F13.418405506791224
sg24
g53
sg25
F0.5
sg26
g19
sg27
Nsbssg8
(dp56
sg20
g4
sg24
g10
sbsS'1atp_peptide-CHARMM'
p57
g1
(g2
g3
NtRp58
(dp59
g6
(dp60
g14
g1
(g15
g3
NtRp61
(dp62
g18
g19
sg20
g58
sg21
I00
sg22
Nsg23
F311.01789688872691
sg24
g14
sg25
F0.5
sg26
g19
sg27
NsbsS'Harmonic Improper'
p63
g1
(g15
g3
NtRp64
(dp65
g18
g19
sg20
g58
sg21
I00
sg22
Nsg23
F2.0763471355852237
sg24
g63
sg25
F0.5
sg26
g19
sg27
NsbsS'Urey-Bradley'
p66
g1
(g15
g3
NtRp67
(dp68
g18
g19
sg20
g58
sg21
I00
sg22
Nsg23
F153.13246782399202
sg24
g66
sg25
F0.5
sg26
g19
sg27
Nsbsg28
g1
(g15
g3
NtRp69
(dp70
g18
g19
sg20
g58
sg21
I00
sg22
Nsg23
F2758.554213523988
sg24
g28
sg25
F0.5
sg26
g19
sg27
Nsbsg31
g1
(g15
g3
NtRp71
(dp72
g18
g19
sg20
g58
sg21
I00
sg22
Nsg23
F831.67641502232198
sg24
g31
sg25
F0.5
sg26
g19
sg27
Nsbsg34
g1
(g15
g3
NtRp73
(dp74
g18
g19
sg20
g58
sg21
I00
sg22
Nsg23
F-2060.6027695430394
sg24
g34
sg25
F0.5
sg26
g19
sg27
Nsbsg37
g1
(g15
g3
NtRp75
(dp76
g18
g19
sg20
g58
sg21
I00
sg22
Nsg23
F2566.5962344099862
sg24
g37
sg25
F0.5
sg26
g19
sg27
Nsbsg43
g1
(g15
g3
NtRp77
(dp78
g18
g19
sg20
g58
sg21
I00
sg22
Nsg23
F119.79882361641397
sg24
g43
sg25
F0.5
sg26
g19
sg27
Nsbsg46
g1
(g15
g3
NtRp79
(dp80
g18
g19
sg20
g58
sg21
I00
sg22
Nsg23
F478.20597361491809
sg24
g46
sg25
F0.5
sg26
g19
sg27
NsbsS'CMAP Dihedral'
p81
g1
(g15
g3
NtRp82
(dp83
g18
g19
sg20
g58
sg21
I00
sg22
Nsg23
F-73.974179211310783
sg24
g81
sg25
F0.5
sg26
g19
sg27
Nsbsg53
g1
(g15
g3
NtRp84
(dp85
g18
g19
sg20
g58
sg21
I00
sg22
Nsg23
F430.62700376639339
sg24
g53
sg25
F0.5
sg26
g19
sg27
Nsbssg8
(dp86
sg20
g4
sg24
g57
sbsS'1atp_peptide-AMBER'
p87
g1
(g2
g3
NtRp88
(dp89
g6
(dp90
g14
g1
(g15
g3
NtRp91
(dp92
g18
g19
sg20
g88
sg21
I00
sg22
Nsg23
F659.62440280233182
sg24
g14
sg25
F0.5
sg26
g19
sg27
Nsbsg28
g1
(g15
g3
NtRp93
(dp94
g18
g19
sg20
g88
sg21
I00
sg22
Nsg23
F2815.8698774217401
sg24
g28
sg25
F0.5
sg26
g19
sg27
Nsbsg31
g1
(g15
g3
NtRp95
(dp96
g18
g19
sg20
g88
sg21
I00
sg22
Nsg23
F848.57104030116125
sg24
g31
sg25
F0.5
sg26
g19
sg27
Nsbsg34
g1
(g15
g3
NtRp97
(dp98
g18
g19
sg20
g88
sg21
I00
sg22
Nsg23
F-3440.7572268824629
sg24
g34
sg25
F0.5
sg26
g19
sg27
Nsbsg37
g1
(g15
g3
NtRp99
(dp100
g18
g19
sg20
g88
sg21
I00
sg22
Nsg23
F2246.4445046382393
sg24
g37
sg25
F0.5
sg26
g19
sg27
Nsbsg40
g1
(g15
g3
NtRp101
(dp102
g18
g19
sg20
g88
sg21
I00
sg22
Nsg23
F1.4496707406907781
sg24
g40
sg25
F0.5
sg26
g19
sg27
Nsbsg43
g1
(g15
g3
NtRp103
(dp104
g18
g19
sg20
g88
sg21
I00
sg22
Nsg23
F1469.475305857085
sg24
g43
sg25
F0.5
sg26
g19
sg27
Nsbsg46
g1
(g15
g3
NtRp105
(dp106
g18
g19
sg20
g88
sg21
I00
sg22
Nsg23
F539.66062169405723
sg24
g46
sg25
F0.5
sg26
g19
sg27
Nsbsg53
g1
(g15
g3
NtRp107
(dp108
g18
g19
sg20
g88
sg21
I00
sg22
Nsg23
F491.40155827063762
sg24
g53
sg25
F0.5
sg26
g19
sg27
Nsbssg8
(dp109
sg20
g4
sg24
g87
sbsS'ava-CHARMM'
p110
g1
(g2
g3
NtRp111
(dp112
g6
(dp113
g14
g1
(g15
g3
NtRp114
(dp115
g18
g19
sg20
g111
sg21
I00
sg22
Nsg23
F13.72169044570512
sg24
g14
sg25
F0.5
sg26
g19
sg27
Nsbsg63
g1
(g15
g3
NtRp116
(dp117
g18
g19
sg20
g111
sg21
I00
sg22
Nsg23
F0.037322600424997687
sg24
g63
sg25
F0.5
sg26
g19
sg27
Nsbsg66
g1
(g15
g3
NtRp118
(dp119
g18
g19
sg20
g111
sg21
I00
sg22
Nsg23
F0.92423796871695385
sg24
g66
sg25
F0.5
sg26
g19
sg27
Nsbsg28
g1
(g15
g3
NtRp120
(dp121
g18
g19
sg20
g111
sg21
I00
sg22
Nsg23
F107.90881710249582
sg24
g28
sg25
F0.5
sg26
g19
sg27
Nsbsg31
g1
(g15
g3
NtRp122
(dp123
g18
g19
sg20
g111
sg21
I00
sg22
Nsg23
F-12.581979424742224
sg24
g31
sg25
F0.5
sg26
g19
sg27
Nsbsg34
g1
(g15
g3
NtRp124
(dp125
g18
g19
sg20
g111
sg21
I00
sg22
Nsg23
F-1017.1123629775817
sg24
g34
sg25
F0.5
sg26
g19
sg27
Nsbsg37
g1
(g15
g3
NtRp126
(dp127
g18
g19
sg20
g111
sg21
I00
sg22
Nsg23
F3.2071943938419158
sg24
g37
sg25
F0.5
sg26
g19
sg27
Nsbsg43
g1
(g15
g3
NtRp128
(dp129
g18
g19
sg20
g111
sg21
I00
sg22
Nsg23
F1113.9924841186792
sg24
g43
sg25
F0.5
sg26
g19
sg27
Nsbsg46
g1
(g15
g3
NtRp130
(dp131
g18
g19
sg20
g111
sg21
I00
sg22
Nsg23
F11.627072056416131
sg24
g46
sg25
F0.5
sg26
g19
sg27
Nsbsg81
g1
(g15
g3
NtRp132
(dp133
g18
g19
sg20
g111
sg21
I00
sg22
Nsg23
F-16.421353658193567
sg24
g81
sg25
F0.5
sg26
g19
sg27
Nsbsg49
g1
(g15
g3
NtRp134
(dp135
g18
g52
sg20
g111
sg21
I00
sg22
Nsg23
F1.3989508545364515e-05
sg24
g49
sg25
F0.001
sg26
g52
sg27
Nsbsg53
g1
(g15
g3
NtRp136
(dp137
g18
g19
sg20
g111
sg21
I00
sg22
Nsg23
F10.514511579229001
sg24
g53
sg25
F0.5
sg26
g19
sg27
Nsbssg8
(dp138
sg20
g4
sg24
g110
sbssg20
Nsg24
S'Gromacs Test'
p139
sb.
