ccopy_reg
_reconstructor
p1
(cpCore.Testing
TestDataSet
p2
c__builtin__
object
p3
NtRp4
(dp5
S'data'
p6
(dp7
sS'children'
p8
(dp9
S'ava-AMBER'
p10
g1
(g2
g3
NtRp11
(dp12
g6
(dp13
S'Fourier Dihedral'
p14
g1
(cpCore.Testing
TestReal
p15
g3
NtRp16
(dp17
S'valueFormat'
p18
S'{:.3f}'
p19
sS'parent'
p20
g11
sS'usePercentError'
p21
I00
sS'percentErrorTolerance'
p22
NsS'value'
p23
F44.671059
sS'label'
p24
g14
sS'absoluteErrorTolerance'
p25
F0.5
sS'toleranceFormat'
p26
g19
sS'units'
p27
NsbsS'Potential Energy'
p28
g1
(g15
g3
NtRp29
(dp30
g18
g19
sg20
g11
sg21
I00
sg22
Nsg23
F-101.31958
sg24
g28
sg25
F0.5
sg26
g19
sg27
NsbsS'MM/MM LJ'
p31
g1
(g15
g3
NtRp32
(dp33
g18
g19
sg20
g11
sg21
I00
sg22
Nsg23
F-14.064209999999999
sg24
g31
sg25
F0.5
sg26
g19
sg27
NsbsS'MM/MM Elect.'
p34
g1
(g15
g3
NtRp35
(dp36
g18
g19
sg20
g11
sg21
I00
sg22
Nsg23
F-1050.0429690000001
sg24
g34
sg25
F0.5
sg26
g19
sg27
NsbsS'Harmonic Bond'
p37
g1
(g15
g3
NtRp38
(dp39
g18
g19
sg20
g11
sg21
I00
sg22
Nsg23
F20.774445
sg24
g37
sg25
F0.5
sg26
g19
sg27
NsbsS'Fourier Improper'
p40
g1
(g15
g3
NtRp41
(dp42
g18
g19
sg20
g11
sg21
I00
sg22
Nsg23
F0.019946999999999999
sg24
g40
sg25
F0.5
sg26
g19
sg27
NsbsS'MM/MM 1-4 Elect.'
p43
g1
(g15
g3
NtRp44
(dp45
g18
g19
sg20
g11
sg21
I00
sg22
Nsg23
F840.01226799999995
sg24
g43
sg25
F0.5
sg26
g19
sg27
NsbsS'MM/MM 1-4 LJ'
p46
g1
(g15
g3
NtRp47
(dp48
g18
g19
sg20
g11
sg21
I00
sg22
Nsg23
F43.893954999999998
sg24
g46
sg25
F0.5
sg26
g19
sg27
NsbsS'Gradient Error'
p49
g1
(g15
g3
NtRp50
(dp51
g18
S'{:.4e}'
p52
sg20
g11
sg21
I00
sg22
Nsg23
F1.4035588240091101e-05
sg24
g49
sg25
F0.001
sg26
g52
sg27
NsbsS'Harmonic Angle'
p53
g1
(g15
g3
NtRp54
(dp55
g18
g19
sg20
g11
sg21
I00
sg22
Nsg23
F13.415921000000001
sg24
g53
sg25
F0.5
sg26
g19
sg27
Nsbssg8
(dp56
sg20
g4
sg24
g10
sbsS'crambin-AMBER'
p57
g1
(g2
g3
NtRp58
(dp59
g6
(dp60
g14
g1
(g15
g3
NtRp61
(dp62
g18
g19
sg20
g58
sg21
I00
sg22
Nsg23
F1589.9670410000001
sg24
g14
sg25
F0.5
sg26
g19
sg27
Nsbsg28
g1
(g15
g3
NtRp63
(dp64
g18
g19
sg20
g58
sg21
I00
sg22
Nsg23
F-3259.375732
sg24
g28
sg25
F0.5
sg26
g19
sg27
Nsbsg31
g1
(g15
g3
NtRp65
(dp66
g18
g19
sg20
g58
sg21
I00
sg22
Nsg23
F-1170.9508060000001
sg24
g31
sg25
F0.5
sg26
g19
sg27
Nsbsg34
g1
(g15
g3
NtRp67
(dp68
g18
g19
sg20
g58
sg21
I00
sg22
Nsg23
F-13067.493164
sg24
g34
sg25
F0.5
sg26
g19
sg27
Nsbsg37
g1
(g15
g3
NtRp69
(dp70
g18
g19
sg20
g58
sg21
I00
sg22
Nsg23
F502.35678100000001
sg24
g37
sg25
F0.5
sg26
g19
sg27
Nsbsg40
g1
(g15
g3
NtRp71
(dp72
g18
g19
sg20
g58
sg21
I00
sg22
Nsg23
F8.6445519999999991
sg24
g40
sg25
F0.5
sg26
g19
sg27
Nsbsg43
g1
(g15
g3
NtRp73
(dp74
g18
g19
sg20
g58
sg21
I00
sg22
Nsg23
F7718.2578119999998
sg24
g43
sg25
F0.5
sg26
g19
sg27
Nsbsg46
g1
(g15
g3
NtRp75
(dp76
g18
g19
sg20
g58
sg21
I00
sg22
Nsg23
F771.42419400000006
sg24
g46
sg25
F0.5
sg26
g19
sg27
Nsbsg53
g1
(g15
g3
NtRp77
(dp78
g18
g19
sg20
g58
sg21
I00
sg22
Nsg23
F388.41802999999999
sg24
g53
sg25
F0.5
sg26
g19
sg27
Nsbssg8
(dp79
sg20
g4
sg24
g57
sbsS'1atp_peptide-AMBER'
p80
g1
(g2
g3
NtRp81
(dp82
g6
(dp83
g14
g1
(g15
g3
NtRp84
(dp85
g18
g19
sg20
g81
sg21
I00
sg22
Nsg23
F659.62426800000003
sg24
g14
sg25
F0.5
sg26
g19
sg27
Nsbsg28
g1
(g15
g3
NtRp86
(dp87
g18
g19
sg20
g81
sg21
I00
sg22
Nsg23
F2815.8535160000001
sg24
g28
sg25
F0.5
sg26
g19
sg27
Nsbsg31
g1
(g15
g3
NtRp88
(dp89
g18
g19
sg20
g81
sg21
I00
sg22
Nsg23
F848.56091300000003
sg24
g31
sg25
F0.5
sg26
g19
sg27
Nsbsg34
g1
(g15
g3
NtRp90
(dp91
g18
g19
sg20
g81
sg21
I00
sg22
Nsg23
F-3440.7651369999999
sg24
g34
sg25
F0.5
sg26
g19
sg27
Nsbsg37
g1
(g15
g3
NtRp92
(dp93
g18
g19
sg20
g81
sg21
I00
sg22
Nsg23
F2246.516357
sg24
g37
sg25
F0.5
sg26
g19
sg27
Nsbsg40
g1
(g15
g3
NtRp94
(dp95
g18
g19
sg20
g81
sg21
I00
sg22
Nsg23
F1.449597
sg24
g40
sg25
F0.5
sg26
g19
sg27
Nsbsg43
g1
(g15
g3
NtRp96
(dp97
g18
g19
sg20
g81
sg21
I00
sg22
Nsg23
F1469.416626
sg24
g43
sg25
F0.5
sg26
g19
sg27
Nsbsg46
g1
(g15
g3
NtRp98
(dp99
g18
g19
sg20
g81
sg21
I00
sg22
Nsg23
F539.65783699999997
sg24
g46
sg25
F0.5
sg26
g19
sg27
Nsbsg53
g1
(g15
g3
NtRp100
(dp101
g18
g19
sg20
g81
sg21
I00
sg22
Nsg23
F491.392853
sg24
g53
sg25
F0.5
sg26
g19
sg27
Nsbssg8
(dp102
sg20
g4
sg24
g80
sbsS'ava-CHARMM'
p103
g1
(g2
g3
NtRp104
(dp105
g6
(dp106
g14
g1
(g15
g3
NtRp107
(dp108
g18
g19
sg20
g104
sg21
I00
sg22
Nsg23
F13.721724999999999
sg24
g14
sg25
F0.5
sg26
g19
sg27
NsbsS'Harmonic Improper'
p109
g1
(g15
g3
NtRp110
(dp111
g18
g19
sg20
g104
sg21
I00
sg22
Nsg23
F0.037331999999999997
sg24
g109
sg25
F0.5
sg26
g19
sg27
NsbsS'Harmonic Angle + U-B'
p112
g1
(g15
g3
NtRp113
(dp114
g18
g19
sg20
g104
sg21
I00
sg22
Nsg23
F11.438545
sg24
g112
sg25
F0.5
sg26
g19
sg27
Nsbsg28
g1
(g15
g3
NtRp115
(dp116
g18
g19
sg20
g104
sg21
I00
sg22
Nsg23
F107.90795900000001
sg24
g28
sg25
F0.5
sg26
g19
sg27
Nsbsg31
g1
(g15
g3
NtRp117
(dp118
g18
g19
sg20
g104
sg21
I00
sg22
Nsg23
F-12.58189
sg24
g31
sg25
F0.5
sg26
g19
sg27
Nsbsg34
g1
(g15
g3
NtRp119
(dp120
g18
g19
sg20
g104
sg21
I00
sg22
Nsg23
F-1017.112183
sg24
g34
sg25
F0.5
sg26
g19
sg27
Nsbsg37
g1
(g15
g3
NtRp121
(dp122
g18
g19
sg20
g104
sg21
I00
sg22
Nsg23
F3.2071079999999998
sg24
g37
sg25
F0.5
sg26
g19
sg27
Nsbsg43
g1
(g15
g3
NtRp123
(dp124
g18
g19
sg20
g104
sg21
I00
sg22
Nsg23
F1113.9914550000001
sg24
g43
sg25
F0.5
sg26
g19
sg27
Nsbsg46
g1
(g15
g3
NtRp125
(dp126
g18
g19
sg20
g104
sg21
I00
sg22
Nsg23
F11.627160999999999
sg24
g46
sg25
F0.5
sg26
g19
sg27
NsbsS'CMAP Dihedral'
p127
g1
(g15
g3
NtRp128
(dp129
g18
g19
sg20
g104
sg21
I00
sg22
Nsg23
F-16.421263
sg24
g127
sg25
F0.5
sg26
g19
sg27
Nsbsg49
g1
(g15
g3
NtRp130
(dp131
g18
g52
sg20
g104
sg21
I00
sg22
Nsg23
F1.4035588240091101e-05
sg24
g49
sg25
F0.001
sg26
g52
sg27
Nsbssg8
(dp132
sg20
g4
sg24
g103
sbsS'crambin-CHARMM'
p133
g1
(g2
g3
NtRp134
(dp135
g6
(dp136
g14
g1
(g15
g3
NtRp137
(dp138
g18
g19
sg20
g134
sg21
I00
sg22
Nsg23
F0
sg24
g14
sg25
F0.5
sg26
g19
sg27
Nsbsg109
g1
(g15
g3
NtRp139
(dp140
g18
g19
sg20
g134
sg21
I00
sg22
Nsg23
F0
sg24
g109
sg25
F0.5
sg26
g19
sg27
Nsbsg28
g1
(g15
g3
NtRp141
(dp142
g18
g19
sg20
g134
sg21
I00
sg22
Nsg23
F0
sg24
g28
sg25
F0.5
sg26
g19
sg27
Nsbsg31
g1
(g15
g3
NtRp143
(dp144
g18
g19
sg20
g134
sg21
I00
sg22
Nsg23
F0
sg24
g31
sg25
F0.5
sg26
g19
sg27
Nsbsg34
g1
(g15
g3
NtRp145
(dp146
g18
g19
sg20
g134
sg21
I00
sg22
Nsg23
F0
sg24
g34
sg25
F0.5
sg26
g19
sg27
Nsbsg37
g1
(g15
g3
NtRp147
(dp148
g18
g19
sg20
g134
sg21
I00
sg22
Nsg23
F0
sg24
g37
sg25
F0.5
sg26
g19
sg27
Nsbsg43
g1
(g15
g3
NtRp149
(dp150
g18
g19
sg20
g134
sg21
I00
sg22
Nsg23
F0
sg24
g43
sg25
F0.5
sg26
g19
sg27
Nsbsg46
g1
(g15
g3
NtRp151
(dp152
g18
g19
sg20
g134
sg21
I00
sg22
Nsg23
F0
sg24
g46
sg25
F0.5
sg26
g19
sg27
Nsbsg53
g1
(g15
g3
NtRp153
(dp154
g18
g19
sg20
g134
sg21
I00
sg22
Nsg23
F0
sg24
g53
sg25
F0.5
sg26
g19
sg27
Nsbssg8
(dp155
sg20
g4
sg24
g133
sbsS'1atp_peptide-CHARMM'
p156
g1
(g2
g3
NtRp157
(dp158
g6
(dp159
g14
g1
(g15
g3
NtRp160
(dp161
g18
g19
sg20
g157
sg21
I00
sg22
Nsg23
F311.01782200000002
sg24
g14
sg25
F0.5
sg26
g19
sg27
Nsbsg109
g1
(g15
g3
NtRp162
(dp163
g18
g19
sg20
g157
sg21
I00
sg22
Nsg23
F2.076368
sg24
g109
sg25
F0.5
sg26
g19
sg27
Nsbsg31
g1
(g15
g3
NtRp164
(dp165
g18
g19
sg20
g157
sg21
I00
sg22
Nsg23
F831.66503899999998
sg24
g31
sg25
F0.5
sg26
g19
sg27
Nsbsg28
g1
(g15
g3
NtRp166
(dp167
g18
g19
sg20
g157
sg21
I00
sg22
Nsg23
F2758.623047
sg24
g28
sg25
F0.5
sg26
g19
sg27
Nsbsg112
g1
(g15
g3
NtRp168
(dp169
g18
g19
sg20
g157
sg21
I00
sg22
Nsg23
F583.75091599999996
sg24
g112
sg25
F0.5
sg26
g19
sg27
Nsbsg34
g1
(g15
g3
NtRp170
(dp171
g18
g19
sg20
g157
sg21
I00
sg22
Nsg23
F-2060.5939939999998
sg24
g34
sg25
F0.5
sg26
g19
sg27
Nsbsg37
g1
(g15
g3
NtRp172
(dp173
g18
g19
sg20
g157
sg21
I00
sg22
Nsg23
F2566.6796880000002
sg24
g37
sg25
F0.5
sg26
g19
sg27
Nsbsg43
g1
(g15
g3
NtRp174
(dp175
g18
g19
sg20
g157
sg21
I00
sg22
Nsg23
F119.798035
sg24
g43
sg25
F0.5
sg26
g19
sg27
Nsbsg46
g1
(g15
g3
NtRp176
(dp177
g18
g19
sg20
g157
sg21
I00
sg22
Nsg23
F478.203125
sg24
g46
sg25
F0.5
sg26
g19
sg27
Nsbsg127
g1
(g15
g3
NtRp178
(dp179
g18
g19
sg20
g157
sg21
I00
sg22
Nsg23
F-73.974022000000005
sg24
g127
sg25
F0.5
sg26
g19
sg27
Nsbssg8
(dp180
sg20
g4
sg24
g156
sbssg20
Nsg24
S'Gromacs Test'
p181
sb.
